Archive member included to satisfy reference by file (symbol)

/home/ulises/Escritorio/dbz/nflib/lib/libnflib.a(nf_2d.o)
                              main.o (NF_Set2D)
/home/ulises/Escritorio/dbz/nflib/lib/libnflib.a(nf_basic.o)
                              /home/ulises/Escritorio/dbz/nflib/lib/libnflib.a(nf_2d.o) (NF_Error)
/home/ulises/Escritorio/dbz/nflib/lib/libnflib.a(nf_sound.o)
                              main.o (NF_InitRawSoundBuffers)
/home/ulises/Escritorio/dbz/nflib/lib/libnflib.a(nf_sprite256.o)
                              main.o (NF_InitSpriteBuffers)
/home/ulises/Escritorio/dbz/nflib/lib/libnflib.a(nf_tiledbg.o)
                              main.o (NF_InitTiledBgBuffers)
/home/ulises/devkitPro/libnds/lib/libfilesystem.a(nitrofs.o)
                              /home/ulises/Escritorio/dbz/nflib/lib/libnflib.a(nf_basic.o) (nitroFSInit)
/home/ulises/devkitPro/libnds/lib/libfat.a(libfat.o)
                              /home/ulises/Escritorio/dbz/nflib/lib/libnflib.a(nf_basic.o) (fatInitDefault)
/home/ulises/devkitPro/libnds/lib/libfat.a(partition.o)
                              /home/ulises/devkitPro/libnds/lib/libfat.a(libfat.o) (_FAT_partition_constructor)
/home/ulises/devkitPro/libnds/lib/libfat.a(lock.o)
                              /home/ulises/devkitPro/libnds/lib/libfat.a(partition.o) (_FAT_lock_init)
/home/ulises/devkitPro/libnds/lib/libfat.a(fatdir.o)
                              /home/ulises/devkitPro/libnds/lib/libfat.a(libfat.o) (_FAT_stat_r)
/home/ulises/devkitPro/libnds/lib/libfat.a(cache.o)
                              /home/ulises/devkitPro/libnds/lib/libfat.a(partition.o) (_FAT_cache_constructor)
/home/ulises/devkitPro/libnds/lib/libfat.a(fatfile.o)
                              /home/ulises/devkitPro/libnds/lib/libfat.a(libfat.o) (_FAT_open_r)
/home/ulises/devkitPro/libnds/lib/libfat.a(disc.o)
                              /home/ulises/devkitPro/libnds/lib/libfat.a(libfat.o) (_FAT_disc_interfaces)
/home/ulises/devkitPro/libnds/lib/libfat.a(file_allocation_table.o)
                              /home/ulises/devkitPro/libnds/lib/libfat.a(fatfile.o) (_FAT_fat_nextCluster)
/home/ulises/devkitPro/libnds/lib/libfat.a(filetime.o)
                              /home/ulises/devkitPro/libnds/lib/libfat.a(fatdir.o) (_FAT_filetime_getTimeFromRTC)
/home/ulises/devkitPro/libnds/lib/libfat.a(directory.o)
                              /home/ulises/devkitPro/libnds/lib/libfat.a(fatdir.o) (_FAT_directory_entryGetCluster)
/home/ulises/devkitPro/libnds/lib/libnds9.a(keys.o)
                              main.o (scanKeys)
/home/ulises/devkitPro/libnds/lib/libnds9.a(sprite.o)
                              /home/ulises/Escritorio/dbz/nflib/lib/libnflib.a(nf_sprite256.o) (oamInit)
/home/ulises/devkitPro/libnds/lib/libnds9.a(sound.o)
                              main.o (soundEnable)
/home/ulises/devkitPro/libnds/lib/libnds9.a(trig.o)
                              /home/ulises/devkitPro/libnds/lib/libnds9.a(sprite.o) (sinLerp)
/home/ulises/devkitPro/libnds/lib/libnds9.a(console.o)
                              main.o (consoleDemoInit)
/home/ulises/devkitPro/libnds/lib/libnds9.a(sprite_alloc.o)
                              /home/ulises/devkitPro/libnds/lib/libnds9.a(sprite.o) (oamAllocReset)
/home/ulises/devkitPro/libnds/lib/libnds9.a(touch.o)
                              main.o (touchRead)
/home/ulises/devkitPro/libnds/lib/libnds9.a(video.o)
                              /home/ulises/Escritorio/dbz/nflib/lib/libnflib.a(nf_basic.o) (setBrightness)
/home/ulises/devkitPro/libnds/lib/libnds9.a(background.o)
                              /home/ulises/devkitPro/libnds/lib/libnds9.a(console.o) (bgState)
/home/ulises/devkitPro/libnds/lib/libnds9.a(dldi.o)
                              /home/ulises/devkitPro/libnds/lib/libfat.a(disc.o) (dldiGetInternal)
/home/ulises/devkitPro/libnds/lib/libnds9.a(dsi_sd.o)
                              /home/ulises/devkitPro/libnds/lib/libfat.a(disc.o) (__io_dsisd)
/home/ulises/devkitPro/libnds/lib/libnds9.a(initSystem.o)
                              /home/ulises/devkitPro/devkitARM/bin/../lib/gcc/arm-none-eabi/4.9.2/../../../../arm-none-eabi/lib/thumb/ds_arm9_crt0.o (initSystem)
/home/ulises/devkitPro/libnds/lib/libnds9.a(fifosystem.o)
                              /home/ulises/devkitPro/libnds/lib/libnds9.a(initSystem.o) (fifoSetValue32Handler)
/home/ulises/devkitPro/libnds/lib/libnds9.a(card.o)
                              /home/ulises/devkitPro/libnds/lib/libfilesystem.a(nitrofs.o) (cardParamCommand)
/home/ulises/devkitPro/libnds/lib/libnds9.a(libnds_exit.arm.o)
                              /home/ulises/devkitPro/devkitARM/bin/../lib/gcc/arm-none-eabi/4.9.2/../../../../arm-none-eabi/lib/thumb/ds_arm9_crt0.o (__libnds_exit)
/home/ulises/devkitPro/libnds/lib/libnds9.a(interrupts.o)
                              main.o (irqSet)
/home/ulises/devkitPro/libnds/lib/libnds9.a(dcache.o)
                              /home/ulises/Escritorio/dbz/nflib/lib/libnflib.a(nf_basic.o) (DC_FlushRange)
/home/ulises/devkitPro/libnds/lib/libnds9.a(dldi_stub.o)
                              /home/ulises/devkitPro/libnds/lib/libnds9.a(dldi.o) (_io_dldi_stub)
/home/ulises/devkitPro/libnds/lib/libnds9.a(mpu_setup.o)
                              /home/ulises/devkitPro/devkitARM/bin/../lib/gcc/arm-none-eabi/4.9.2/../../../../arm-none-eabi/lib/thumb/ds_arm9_crt0.o (__libnds_mpu_setup)
/home/ulises/devkitPro/libnds/lib/libnds9.a(swiSoftReset.o)
                              /home/ulises/devkitPro/libnds/lib/libnds9.a(fifosystem.o) (swiSoftReset)
/home/ulises/devkitPro/libnds/lib/libnds9.a(debugprint.o)
                              /home/ulises/devkitPro/libnds/lib/libnds9.a(console.o) (nocashWrite)
/home/ulises/devkitPro/libnds/lib/libnds9.a(biosCalls.o)
                              /home/ulises/devkitPro/libnds/lib/libnds9.a(card.o) (swiDelay)
/home/ulises/devkitPro/libnds/lib/libnds9.a(interruptDispatcher.o)
                              /home/ulises/devkitPro/libnds/lib/libnds9.a(interrupts.o) (IntrMain)
/home/ulises/devkitPro/libnds/lib/libnds9.a(default_font.bin.o)
                              /home/ulises/devkitPro/libnds/lib/libnds9.a(console.o) (default_font_bin)
/home/ulises/devkitPro/libnds/lib/libnds9.a(system.o)
                              /home/ulises/devkitPro/libnds/lib/libnds9.a(initSystem.o) (systemMsgHandler)
/home/ulises/devkitPro/libnds/lib/libnds9.a(timeSupport.o)
                              /home/ulises/devkitPro/libnds/lib/libnds9.a(initSystem.o) (__libnds_gtod)
/home/ulises/devkitPro/devkitARM/bin/../lib/gcc/arm-none-eabi/4.9.2/thumb/libgcc.a(_udivsi3.o)
                              /home/ulises/Escritorio/dbz/nflib/lib/libnflib.a(nf_sprite256.o) (__aeabi_uidiv)
/home/ulises/devkitPro/devkitARM/bin/../lib/gcc/arm-none-eabi/4.9.2/thumb/libgcc.a(_divsi3.o)
                              main.o (__aeabi_idiv)
/home/ulises/devkitPro/devkitARM/bin/../lib/gcc/arm-none-eabi/4.9.2/thumb/libgcc.a(_dvmd_tls.o)
                              /home/ulises/devkitPro/devkitARM/bin/../lib/gcc/arm-none-eabi/4.9.2/thumb/libgcc.a(_udivsi3.o) (__aeabi_idiv0)
/home/ulises/devkitPro/devkitARM/bin/../lib/gcc/arm-none-eabi/4.9.2/thumb/libgcc.a(_muldi3.o)
                              /home/ulises/devkitPro/libnds/lib/libfat.a(partition.o) (__aeabi_lmul)
/home/ulises/devkitPro/devkitARM/bin/../lib/gcc/arm-none-eabi/4.9.2/../../../../arm-none-eabi/lib/thumb/libg.a(lib_a-bsearch.o)
                              /home/ulises/devkitPro/libnds/lib/libnds9.a(trig.o) (bsearch)
/home/ulises/devkitPro/devkitARM/bin/../lib/gcc/arm-none-eabi/4.9.2/../../../../arm-none-eabi/lib/thumb/libg.a(lib_a-calloc.o)
                              /home/ulises/Escritorio/dbz/nflib/lib/libnflib.a(nf_sound.o) (calloc)
/home/ulises/devkitPro/devkitARM/bin/../lib/gcc/arm-none-eabi/4.9.2/../../../../arm-none-eabi/lib/thumb/libg.a(lib_a-callocr.o)
                              /home/ulises/devkitPro/devkitARM/bin/../lib/gcc/arm-none-eabi/4.9.2/../../../../arm-none-eabi/lib/thumb/libg.a(lib_a-calloc.o) (_calloc_r)
/home/ulises/devkitPro/devkitARM/bin/../lib/gcc/arm-none-eabi/4.9.2/../../../../arm-none-eabi/lib/thumb/libg.a(lib_a-ctype_.o)
                              /home/ulises/devkitPro/libnds/lib/libfat.a(directory.o) (__ctype_ptr__)
/home/ulises/devkitPro/devkitARM/bin/../lib/gcc/arm-none-eabi/4.9.2/../../../../arm-none-eabi/lib/thumb/libg.a(lib_a-fclose.o)
                              /home/ulises/Escritorio/dbz/nflib/lib/libnflib.a(nf_sound.o) (fclose)
/home/ulises/devkitPro/devkitARM/bin/../lib/gcc/arm-none-eabi/4.9.2/../../../../arm-none-eabi/lib/thumb/libg.a(lib_a-fflush.o)
                              /home/ulises/devkitPro/devkitARM/bin/../lib/gcc/arm-none-eabi/4.9.2/../../../../arm-none-eabi/lib/thumb/libg.a(lib_a-fclose.o) (__sflush_r)
/home/ulises/devkitPro/devkitARM/bin/../lib/gcc/arm-none-eabi/4.9.2/../../../../arm-none-eabi/lib/thumb/libg.a(lib_a-findfp.o)
                              /home/ulises/devkitPro/devkitARM/bin/../lib/gcc/arm-none-eabi/4.9.2/../../../../arm-none-eabi/lib/thumb/libg.a(lib_a-fclose.o) (__sinit)
/home/ulises/devkitPro/devkitARM/bin/../lib/gcc/arm-none-eabi/4.9.2/../../../../arm-none-eabi/lib/thumb/libg.a(lib_a-fopen.o)
                              /home/ulises/Escritorio/dbz/nflib/lib/libnflib.a(nf_sound.o) (fopen)
/home/ulises/devkitPro/devkitARM/bin/../lib/gcc/arm-none-eabi/4.9.2/../../../../arm-none-eabi/lib/thumb/libg.a(lib_a-fread.o)
                              /home/ulises/Escritorio/dbz/nflib/lib/libnflib.a(nf_sound.o) (fread)
/home/ulises/devkitPro/devkitARM/bin/../lib/gcc/arm-none-eabi/4.9.2/../../../../arm-none-eabi/lib/thumb/libg.a(lib_a-freer.o)
                              /home/ulises/devkitPro/devkitARM/bin/../lib/gcc/arm-none-eabi/4.9.2/../../../../arm-none-eabi/lib/thumb/libg.a(lib_a-fclose.o) (_free_r)
/home/ulises/devkitPro/devkitARM/bin/../lib/gcc/arm-none-eabi/4.9.2/../../../../arm-none-eabi/lib/thumb/libg.a(lib_a-fseek.o)
                              /home/ulises/devkitPro/devkitARM/bin/../lib/gcc/arm-none-eabi/4.9.2/../../../../arm-none-eabi/lib/thumb/libg.a(lib_a-fopen.o) (_fseek_r)
/home/ulises/devkitPro/devkitARM/bin/../lib/gcc/arm-none-eabi/4.9.2/../../../../arm-none-eabi/lib/thumb/libg.a(lib_a-fseeko.o)
                              /home/ulises/devkitPro/devkitARM/bin/../lib/gcc/arm-none-eabi/4.9.2/../../../../arm-none-eabi/lib/thumb/libg.a(lib_a-fseek.o) (_fseeko_r)
/home/ulises/devkitPro/devkitARM/bin/../lib/gcc/arm-none-eabi/4.9.2/../../../../arm-none-eabi/lib/thumb/libg.a(lib_a-ftell.o)
                              /home/ulises/Escritorio/dbz/nflib/lib/libnflib.a(nf_sound.o) (ftell)
/home/ulises/devkitPro/devkitARM/bin/../lib/gcc/arm-none-eabi/4.9.2/../../../../arm-none-eabi/lib/thumb/libg.a(lib_a-ftello.o)
                              /home/ulises/devkitPro/devkitARM/bin/../lib/gcc/arm-none-eabi/4.9.2/../../../../arm-none-eabi/lib/thumb/libg.a(lib_a-ftell.o) (_ftello_r)
/home/ulises/devkitPro/devkitARM/bin/../lib/gcc/arm-none-eabi/4.9.2/../../../../arm-none-eabi/lib/thumb/libg.a(lib_a-fwalk.o)
                              /home/ulises/devkitPro/devkitARM/bin/../lib/gcc/arm-none-eabi/4.9.2/../../../../arm-none-eabi/lib/thumb/libg.a(lib_a-findfp.o) (_fwalk)
/home/ulises/devkitPro/devkitARM/bin/../lib/gcc/arm-none-eabi/4.9.2/../../../../arm-none-eabi/lib/thumb/libg.a(lib_a-impure.o)
                              /home/ulises/devkitPro/devkitARM/bin/../lib/gcc/arm-none-eabi/4.9.2/../../../../arm-none-eabi/lib/thumb/libg.a(lib_a-fflush.o) (_global_impure_ptr)
/home/ulises/devkitPro/devkitARM/bin/../lib/gcc/arm-none-eabi/4.9.2/../../../../arm-none-eabi/lib/thumb/libg.a(lib_a-init.o)
                              /home/ulises/devkitPro/devkitARM/bin/../lib/gcc/arm-none-eabi/4.9.2/../../../../arm-none-eabi/lib/thumb/ds_arm9_crt0.o (__libc_init_array)
/home/ulises/devkitPro/devkitARM/bin/../lib/gcc/arm-none-eabi/4.9.2/../../../../arm-none-eabi/lib/thumb/libg.a(lib_a-iprintf.o)
                              main.o (iprintf)
/home/ulises/devkitPro/devkitARM/bin/../lib/gcc/arm-none-eabi/4.9.2/../../../../arm-none-eabi/lib/thumb/libg.a(lib_a-lcltime_r.o)
                              /home/ulises/devkitPro/libnds/lib/libfat.a(filetime.o) (localtime_r)
/home/ulises/devkitPro/devkitARM/bin/../lib/gcc/arm-none-eabi/4.9.2/../../../../arm-none-eabi/lib/thumb/libg.a(lib_a-locale.o)
                              /home/ulises/devkitPro/libnds/lib/libfat.a(directory.o) (__locale_mb_cur_max)
/home/ulises/devkitPro/devkitARM/bin/../lib/gcc/arm-none-eabi/4.9.2/../../../../arm-none-eabi/lib/thumb/libg.a(lib_a-makebuf.o)
                              /home/ulises/devkitPro/devkitARM/bin/../lib/gcc/arm-none-eabi/4.9.2/../../../../arm-none-eabi/lib/thumb/libg.a(lib_a-fseeko.o) (__smakebuf_r)
/home/ulises/devkitPro/devkitARM/bin/../lib/gcc/arm-none-eabi/4.9.2/../../../../arm-none-eabi/lib/thumb/libg.a(lib_a-malloc.o)
                              /home/ulises/devkitPro/libnds/lib/libfilesystem.a(nitrofs.o) (malloc)
/home/ulises/devkitPro/devkitARM/bin/../lib/gcc/arm-none-eabi/4.9.2/../../../../arm-none-eabi/lib/thumb/libg.a(lib_a-mallocr.o)
                              /home/ulises/devkitPro/devkitARM/bin/../lib/gcc/arm-none-eabi/4.9.2/../../../../arm-none-eabi/lib/thumb/libg.a(lib_a-callocr.o) (_malloc_r)
/home/ulises/devkitPro/devkitARM/bin/../lib/gcc/arm-none-eabi/4.9.2/../../../../arm-none-eabi/lib/thumb/libg.a(lib_a-mbrtowc.o)
                              /home/ulises/devkitPro/libnds/lib/libfat.a(directory.o) (mbrtowc)
/home/ulises/devkitPro/devkitARM/bin/../lib/gcc/arm-none-eabi/4.9.2/../../../../arm-none-eabi/lib/thumb/libg.a(lib_a-mbsrtowcs.o)
                              /home/ulises/devkitPro/libnds/lib/libfat.a(directory.o) (mbsrtowcs)
/home/ulises/devkitPro/devkitARM/bin/../lib/gcc/arm-none-eabi/4.9.2/../../../../arm-none-eabi/lib/thumb/libg.a(lib_a-mbtowc_r.o)
                              /home/ulises/devkitPro/devkitARM/bin/../lib/gcc/arm-none-eabi/4.9.2/../../../../arm-none-eabi/lib/thumb/libg.a(lib_a-locale.o) (__utf8_mbtowc)
/home/ulises/devkitPro/devkitARM/bin/../lib/gcc/arm-none-eabi/4.9.2/../../../../arm-none-eabi/lib/thumb/libg.a(lib_a-memcmp.o)
                              /home/ulises/devkitPro/libnds/lib/libfilesystem.a(nitrofs.o) (memcmp)
/home/ulises/devkitPro/devkitARM/bin/../lib/gcc/arm-none-eabi/4.9.2/../../../../arm-none-eabi/lib/thumb/libg.a(lib_a-memcpy.o)
                              /home/ulises/Escritorio/dbz/nflib/lib/libnflib.a(nf_basic.o) (memcpy)
/home/ulises/devkitPro/devkitARM/bin/../lib/gcc/arm-none-eabi/4.9.2/../../../../arm-none-eabi/lib/thumb/libg.a(lib_a-memmove.o)
                              /home/ulises/devkitPro/libnds/lib/libfat.a(directory.o) (memmove)
/home/ulises/devkitPro/devkitARM/bin/../lib/gcc/arm-none-eabi/4.9.2/../../../../arm-none-eabi/lib/thumb/libg.a(lib_a-memset.o)
                              /home/ulises/Escritorio/dbz/nflib/lib/libnflib.a(nf_sprite256.o) (memset)
/home/ulises/devkitPro/devkitARM/bin/../lib/gcc/arm-none-eabi/4.9.2/../../../../arm-none-eabi/lib/thumb/libg.a(lib_a-mktime.o)
                              /home/ulises/devkitPro/libnds/lib/libfat.a(filetime.o) (mktime)
/home/ulises/devkitPro/devkitARM/bin/../lib/gcc/arm-none-eabi/4.9.2/../../../../arm-none-eabi/lib/thumb/libg.a(lib_a-mlock.o)
                              /home/ulises/devkitPro/devkitARM/bin/../lib/gcc/arm-none-eabi/4.9.2/../../../../arm-none-eabi/lib/thumb/libg.a(lib_a-freer.o) (__malloc_lock)
/home/ulises/devkitPro/devkitARM/bin/../lib/gcc/arm-none-eabi/4.9.2/../../../../arm-none-eabi/lib/thumb/libg.a(lib_a-month_lengths.o)
                              /home/ulises/devkitPro/devkitARM/bin/../lib/gcc/arm-none-eabi/4.9.2/../../../../arm-none-eabi/lib/thumb/libg.a(lib_a-lcltime_r.o) (__month_lengths)
/home/ulises/devkitPro/devkitARM/bin/../lib/gcc/arm-none-eabi/4.9.2/../../../../arm-none-eabi/lib/thumb/libg.a(lib_a-realloc.o)
                              /home/ulises/devkitPro/libnds/lib/libnds9.a(sprite_alloc.o) (realloc)
/home/ulises/devkitPro/devkitARM/bin/../lib/gcc/arm-none-eabi/4.9.2/../../../../arm-none-eabi/lib/thumb/libg.a(lib_a-reallocr.o)
                              /home/ulises/devkitPro/devkitARM/bin/../lib/gcc/arm-none-eabi/4.9.2/../../../../arm-none-eabi/lib/thumb/libg.a(lib_a-realloc.o) (_realloc_r)
/home/ulises/devkitPro/devkitARM/bin/../lib/gcc/arm-none-eabi/4.9.2/../../../../arm-none-eabi/lib/thumb/libg.a(lib_a-refill.o)
                              /home/ulises/devkitPro/devkitARM/bin/../lib/gcc/arm-none-eabi/4.9.2/../../../../arm-none-eabi/lib/thumb/libg.a(lib_a-fread.o) (__srefill_r)
/home/ulises/devkitPro/devkitARM/bin/../lib/gcc/arm-none-eabi/4.9.2/../../../../arm-none-eabi/lib/thumb/libg.a(lib_a-rewind.o)
                              /home/ulises/Escritorio/dbz/nflib/lib/libnflib.a(nf_sound.o) (rewind)
/home/ulises/devkitPro/devkitARM/bin/../lib/gcc/arm-none-eabi/4.9.2/../../../../arm-none-eabi/lib/thumb/libg.a(lib_a-setvbuf.o)
                              /home/ulises/devkitPro/libnds/lib/libnds9.a(console.o) (setvbuf)
/home/ulises/devkitPro/devkitARM/bin/../lib/gcc/arm-none-eabi/4.9.2/../../../../arm-none-eabi/lib/thumb/libg.a(lib_a-siscanf.o)
                              /home/ulises/devkitPro/libnds/lib/libnds9.a(console.o) (siscanf)
/home/ulises/devkitPro/devkitARM/bin/../lib/gcc/arm-none-eabi/4.9.2/../../../../arm-none-eabi/lib/thumb/libg.a(lib_a-sprintf.o)
                              /home/ulises/Escritorio/dbz/nflib/lib/libnflib.a(nf_2d.o) (sprintf)
/home/ulises/devkitPro/devkitARM/bin/../lib/gcc/arm-none-eabi/4.9.2/../../../../arm-none-eabi/lib/thumb/libg.a(lib_a-stdio.o)
                              /home/ulises/devkitPro/devkitARM/bin/../lib/gcc/arm-none-eabi/4.9.2/../../../../arm-none-eabi/lib/thumb/libg.a(lib_a-findfp.o) (__sread)
/home/ulises/devkitPro/devkitARM/bin/../lib/gcc/arm-none-eabi/4.9.2/../../../../arm-none-eabi/lib/thumb/libg.a(lib_a-stpcpy.o)
                              /home/ulises/devkitPro/libnds/lib/libfat.a(libfat.o) (stpcpy)
/home/ulises/devkitPro/devkitARM/bin/../lib/gcc/arm-none-eabi/4.9.2/../../../../arm-none-eabi/lib/thumb/libg.a(lib_a-strcasecmp.o)
                              /home/ulises/devkitPro/devkitARM/bin/../lib/gcc/arm-none-eabi/4.9.2/../../../../arm-none-eabi/lib/thumb/libg.a(lib_a-locale.o) (strcasecmp)
/home/ulises/devkitPro/devkitARM/bin/../lib/gcc/arm-none-eabi/4.9.2/../../../../arm-none-eabi/lib/thumb/libg.a(lib_a-strcat.o)
                              /home/ulises/devkitPro/devkitARM/bin/../lib/gcc/arm-none-eabi/4.9.2/../../../../arm-none-eabi/lib/thumb/libg.a(lib_a-locale.o) (strcat)
/home/ulises/devkitPro/devkitARM/bin/../lib/gcc/arm-none-eabi/4.9.2/../../../../arm-none-eabi/lib/thumb/libg.a(lib_a-strchr.o)
                              /home/ulises/devkitPro/libnds/lib/libfilesystem.a(nitrofs.o) (strchr)
/home/ulises/devkitPro/devkitARM/bin/../lib/gcc/arm-none-eabi/4.9.2/../../../../arm-none-eabi/lib/thumb/libg.a(lib_a-strcmp.o)
                              /home/ulises/Escritorio/dbz/nflib/lib/libnflib.a(nf_basic.o) (strcmp)
/home/ulises/devkitPro/devkitARM/bin/../lib/gcc/arm-none-eabi/4.9.2/../../../../arm-none-eabi/lib/thumb/libg.a(lib_a-strcpy.o)
                              /home/ulises/Escritorio/dbz/nflib/lib/libnflib.a(nf_basic.o) (strcpy)
/home/ulises/devkitPro/devkitARM/bin/../lib/gcc/arm-none-eabi/4.9.2/../../../../arm-none-eabi/lib/thumb/libg.a(lib_a-strdup.o)
                              /home/ulises/devkitPro/libnds/lib/libfilesystem.a(nitrofs.o) (strdup)
/home/ulises/devkitPro/devkitARM/bin/../lib/gcc/arm-none-eabi/4.9.2/../../../../arm-none-eabi/lib/thumb/libg.a(lib_a-strdup_r.o)
                              /home/ulises/devkitPro/devkitARM/bin/../lib/gcc/arm-none-eabi/4.9.2/../../../../arm-none-eabi/lib/thumb/libg.a(lib_a-strdup.o) (_strdup_r)
/home/ulises/devkitPro/devkitARM/bin/../lib/gcc/arm-none-eabi/4.9.2/../../../../arm-none-eabi/lib/thumb/libg.a(lib_a-strlcpy.o)
                              /home/ulises/devkitPro/devkitARM/bin/../lib/gcc/arm-none-eabi/4.9.2/../../../../arm-none-eabi/lib/thumb/libg.a(lib_a-locale.o) (strlcpy)
/home/ulises/devkitPro/devkitARM/bin/../lib/gcc/arm-none-eabi/4.9.2/../../../../arm-none-eabi/lib/thumb/libg.a(lib_a-strlen.o)
                              /home/ulises/devkitPro/libnds/lib/libfilesystem.a(nitrofs.o) (strlen)
/home/ulises/devkitPro/devkitARM/bin/../lib/gcc/arm-none-eabi/4.9.2/../../../../arm-none-eabi/lib/thumb/libg.a(lib_a-strncasecmp.o)
                              /home/ulises/devkitPro/libnds/lib/libfat.a(libfat.o) (strncasecmp)
/home/ulises/devkitPro/devkitARM/bin/../lib/gcc/arm-none-eabi/4.9.2/../../../../arm-none-eabi/lib/thumb/libg.a(lib_a-strncmp.o)
                              /home/ulises/devkitPro/libnds/lib/libfilesystem.a(nitrofs.o) (strncmp)
/home/ulises/devkitPro/devkitARM/bin/../lib/gcc/arm-none-eabi/4.9.2/../../../../arm-none-eabi/lib/thumb/libg.a(lib_a-strncpy.o)
                              /home/ulises/devkitPro/libnds/lib/libfilesystem.a(nitrofs.o) (strncpy)
/home/ulises/devkitPro/devkitARM/bin/../lib/gcc/arm-none-eabi/4.9.2/../../../../arm-none-eabi/lib/thumb/libg.a(lib_a-strnlen.o)
                              /home/ulises/devkitPro/libnds/lib/libfat.a(directory.o) (strnlen)
/home/ulises/devkitPro/devkitARM/bin/../lib/gcc/arm-none-eabi/4.9.2/../../../../arm-none-eabi/lib/thumb/libg.a(lib_a-strpbrk.o)
                              /home/ulises/devkitPro/libnds/lib/libfat.a(directory.o) (strpbrk)
/home/ulises/devkitPro/devkitARM/bin/../lib/gcc/arm-none-eabi/4.9.2/../../../../arm-none-eabi/lib/thumb/libg.a(lib_a-strrchr.o)
                              /home/ulises/devkitPro/libnds/lib/libfat.a(libfat.o) (strrchr)
/home/ulises/devkitPro/devkitARM/bin/../lib/gcc/arm-none-eabi/4.9.2/../../../../arm-none-eabi/lib/thumb/libg.a(lib_a-strtol.o)
                              /home/ulises/devkitPro/devkitARM/bin/../lib/gcc/arm-none-eabi/4.9.2/../../../../arm-none-eabi/lib/thumb/libg.a(lib_a-locale.o) (_strtol_r)
/home/ulises/devkitPro/devkitARM/bin/../lib/gcc/arm-none-eabi/4.9.2/../../../../arm-none-eabi/lib/thumb/libg.a(lib_a-svfiscanf.o)
                              /home/ulises/devkitPro/devkitARM/bin/../lib/gcc/arm-none-eabi/4.9.2/../../../../arm-none-eabi/lib/thumb/libg.a(lib_a-siscanf.o) (__ssvfiscanf_r)
/home/ulises/devkitPro/devkitARM/bin/../lib/gcc/arm-none-eabi/4.9.2/../../../../arm-none-eabi/lib/thumb/libg.a(lib_a-svfprintf.o)
                              /home/ulises/devkitPro/devkitARM/bin/../lib/gcc/arm-none-eabi/4.9.2/../../../../arm-none-eabi/lib/thumb/libg.a(lib_a-sprintf.o) (_svfprintf_r)
/home/ulises/devkitPro/devkitARM/bin/../lib/gcc/arm-none-eabi/4.9.2/../../../../arm-none-eabi/lib/thumb/libg.a(lib_a-sysclose.o)
                              /home/ulises/devkitPro/libnds/lib/libnds9.a(dldi.o) (close)
/home/ulises/devkitPro/devkitARM/bin/../lib/gcc/arm-none-eabi/4.9.2/../../../../arm-none-eabi/lib/thumb/libg.a(lib_a-syslseek.o)
                              /home/ulises/devkitPro/libnds/lib/libfilesystem.a(nitrofs.o) (lseek)
/home/ulises/devkitPro/devkitARM/bin/../lib/gcc/arm-none-eabi/4.9.2/../../../../arm-none-eabi/lib/thumb/libg.a(lib_a-sysopen.o)
                              /home/ulises/devkitPro/libnds/lib/libfilesystem.a(nitrofs.o) (open)
/home/ulises/devkitPro/devkitARM/bin/../lib/gcc/arm-none-eabi/4.9.2/../../../../arm-none-eabi/lib/thumb/libg.a(lib_a-sysread.o)
                              /home/ulises/devkitPro/libnds/lib/libfilesystem.a(nitrofs.o) (read)
/home/ulises/devkitPro/devkitARM/bin/../lib/gcc/arm-none-eabi/4.9.2/../../../../arm-none-eabi/lib/thumb/libg.a(lib_a-time.o)
                              /home/ulises/devkitPro/libnds/lib/libfat.a(filetime.o) (time)
/home/ulises/devkitPro/devkitARM/bin/../lib/gcc/arm-none-eabi/4.9.2/../../../../arm-none-eabi/lib/thumb/libg.a(lib_a-towlower.o)
                              /home/ulises/devkitPro/libnds/lib/libfat.a(directory.o) (towlower)
/home/ulises/devkitPro/devkitARM/bin/../lib/gcc/arm-none-eabi/4.9.2/../../../../arm-none-eabi/lib/thumb/libg.a(lib_a-towupper.o)
                              /home/ulises/devkitPro/libnds/lib/libfat.a(directory.o) (towupper)
/home/ulises/devkitPro/devkitARM/bin/../lib/gcc/arm-none-eabi/4.9.2/../../../../arm-none-eabi/lib/thumb/libg.a(lib_a-tzcalc_limits.o)
                              /home/ulises/devkitPro/devkitARM/bin/../lib/gcc/arm-none-eabi/4.9.2/../../../../arm-none-eabi/lib/thumb/libg.a(lib_a-lcltime_r.o) (__tzcalc_limits)
/home/ulises/devkitPro/devkitARM/bin/../lib/gcc/arm-none-eabi/4.9.2/../../../../arm-none-eabi/lib/thumb/libg.a(lib_a-tzlock.o)
                              /home/ulises/devkitPro/devkitARM/bin/../lib/gcc/arm-none-eabi/4.9.2/../../../../arm-none-eabi/lib/thumb/libg.a(lib_a-lcltime_r.o) (__tz_lock)
/home/ulises/devkitPro/devkitARM/bin/../lib/gcc/arm-none-eabi/4.9.2/../../../../arm-none-eabi/lib/thumb/libg.a(lib_a-tzvars.o)
                              /home/ulises/devkitPro/devkitARM/bin/../lib/gcc/arm-none-eabi/4.9.2/../../../../arm-none-eabi/lib/thumb/libg.a(lib_a-lcltime_r.o) (_daylight)
/home/ulises/devkitPro/devkitARM/bin/../lib/gcc/arm-none-eabi/4.9.2/../../../../arm-none-eabi/lib/thumb/libg.a(lib_a-ungetc.o)
                              /home/ulises/devkitPro/devkitARM/bin/../lib/gcc/arm-none-eabi/4.9.2/../../../../arm-none-eabi/lib/thumb/libg.a(lib_a-svfiscanf.o) (__submore)
/home/ulises/devkitPro/devkitARM/bin/../lib/gcc/arm-none-eabi/4.9.2/../../../../arm-none-eabi/lib/thumb/libg.a(lib_a-vfiprintf.o)
                              /home/ulises/devkitPro/devkitARM/bin/../lib/gcc/arm-none-eabi/4.9.2/../../../../arm-none-eabi/lib/thumb/libg.a(lib_a-iprintf.o) (_vfiprintf_r)
/home/ulises/devkitPro/devkitARM/bin/../lib/gcc/arm-none-eabi/4.9.2/../../../../arm-none-eabi/lib/thumb/libg.a(lib_a-wcrtomb.o)
                              /home/ulises/devkitPro/devkitARM/bin/../lib/gcc/arm-none-eabi/4.9.2/../../../../arm-none-eabi/lib/thumb/libg.a(lib_a-svfprintf.o) (_wcrtomb_r)
/home/ulises/devkitPro/devkitARM/bin/../lib/gcc/arm-none-eabi/4.9.2/../../../../arm-none-eabi/lib/thumb/libg.a(lib_a-wcsrtombs.o)
                              /home/ulises/devkitPro/devkitARM/bin/../lib/gcc/arm-none-eabi/4.9.2/../../../../arm-none-eabi/lib/thumb/libg.a(lib_a-svfprintf.o) (_wcsrtombs_r)
/home/ulises/devkitPro/devkitARM/bin/../lib/gcc/arm-none-eabi/4.9.2/../../../../arm-none-eabi/lib/thumb/libg.a(lib_a-wctob.o)
                              /home/ulises/devkitPro/libnds/lib/libfat.a(directory.o) (wctob)
/home/ulises/devkitPro/devkitARM/bin/../lib/gcc/arm-none-eabi/4.9.2/../../../../arm-none-eabi/lib/thumb/libg.a(lib_a-wctomb_r.o)
                              /home/ulises/devkitPro/devkitARM/bin/../lib/gcc/arm-none-eabi/4.9.2/../../../../arm-none-eabi/lib/thumb/libg.a(lib_a-locale.o) (__utf8_wctomb)
/home/ulises/devkitPro/devkitARM/bin/../lib/gcc/arm-none-eabi/4.9.2/../../../../arm-none-eabi/lib/thumb/libg.a(lib_a-wsetup.o)
                              /home/ulises/devkitPro/devkitARM/bin/../lib/gcc/arm-none-eabi/4.9.2/../../../../arm-none-eabi/lib/thumb/libg.a(lib_a-vfiprintf.o) (__swsetup_r)
/home/ulises/devkitPro/devkitARM/bin/../lib/gcc/arm-none-eabi/4.9.2/../../../../arm-none-eabi/lib/thumb/libg.a(lib_a-div.o)
                              /home/ulises/devkitPro/devkitARM/bin/../lib/gcc/arm-none-eabi/4.9.2/../../../../arm-none-eabi/lib/thumb/libg.a(lib_a-mktime.o) (div)
/home/ulises/devkitPro/devkitARM/bin/../lib/gcc/arm-none-eabi/4.9.2/../../../../arm-none-eabi/lib/thumb/libg.a(lib_a-dtoa.o)
                              /home/ulises/devkitPro/devkitARM/bin/../lib/gcc/arm-none-eabi/4.9.2/../../../../arm-none-eabi/lib/thumb/libg.a(lib_a-svfprintf.o) (_dtoa_r)
/home/ulises/devkitPro/devkitARM/bin/../lib/gcc/arm-none-eabi/4.9.2/../../../../arm-none-eabi/lib/thumb/libg.a(lib_a-flags.o)
                              /home/ulises/devkitPro/devkitARM/bin/../lib/gcc/arm-none-eabi/4.9.2/../../../../arm-none-eabi/lib/thumb/libg.a(lib_a-fopen.o) (__sflags)
/home/ulises/devkitPro/devkitARM/bin/../lib/gcc/arm-none-eabi/4.9.2/../../../../arm-none-eabi/lib/thumb/libg.a(lib_a-fputwc.o)
                              /home/ulises/devkitPro/devkitARM/bin/../lib/gcc/arm-none-eabi/4.9.2/../../../../arm-none-eabi/lib/thumb/libg.a(lib_a-vfiprintf.o) (_fputwc_r)
/home/ulises/devkitPro/devkitARM/bin/../lib/gcc/arm-none-eabi/4.9.2/../../../../arm-none-eabi/lib/thumb/libg.a(lib_a-fvwrite.o)
                              /home/ulises/devkitPro/devkitARM/bin/../lib/gcc/arm-none-eabi/4.9.2/../../../../arm-none-eabi/lib/thumb/libg.a(lib_a-vfiprintf.o) (__sfvwrite_r)
/home/ulises/devkitPro/devkitARM/bin/../lib/gcc/arm-none-eabi/4.9.2/../../../../arm-none-eabi/lib/thumb/libg.a(lib_a-getenv_r.o)
                              /home/ulises/devkitPro/devkitARM/bin/../lib/gcc/arm-none-eabi/4.9.2/../../../../arm-none-eabi/lib/thumb/libg.a(lib_a-locale.o) (_getenv_r)
/home/ulises/devkitPro/devkitARM/bin/../lib/gcc/arm-none-eabi/4.9.2/../../../../arm-none-eabi/lib/thumb/libg.a(lib_a-gettzinfo.o)
                              /home/ulises/devkitPro/devkitARM/bin/../lib/gcc/arm-none-eabi/4.9.2/../../../../arm-none-eabi/lib/thumb/libg.a(lib_a-lcltime_r.o) (__gettzinfo)
/home/ulises/devkitPro/devkitARM/bin/../lib/gcc/arm-none-eabi/4.9.2/../../../../arm-none-eabi/lib/thumb/libg.a(lib_a-gmtime_r.o)
                              /home/ulises/devkitPro/devkitARM/bin/../lib/gcc/arm-none-eabi/4.9.2/../../../../arm-none-eabi/lib/thumb/libg.a(lib_a-lcltime_r.o) (gmtime_r)
/home/ulises/devkitPro/devkitARM/bin/../lib/gcc/arm-none-eabi/4.9.2/../../../../arm-none-eabi/lib/thumb/libg.a(lib_a-iswspace.o)
                              /home/ulises/devkitPro/devkitARM/bin/../lib/gcc/arm-none-eabi/4.9.2/../../../../arm-none-eabi/lib/thumb/libg.a(lib_a-svfiscanf.o) (iswspace)
/home/ulises/devkitPro/devkitARM/bin/../lib/gcc/arm-none-eabi/4.9.2/../../../../arm-none-eabi/lib/thumb/libg.a(lib_a-jp2uc.o)
                              /home/ulises/devkitPro/devkitARM/bin/../lib/gcc/arm-none-eabi/4.9.2/../../../../arm-none-eabi/lib/thumb/libg.a(lib_a-towlower.o) (_jp2uc)
/home/ulises/devkitPro/devkitARM/bin/../lib/gcc/arm-none-eabi/4.9.2/../../../../arm-none-eabi/lib/thumb/libg.a(lib_a-mbsnrtowcs.o)
                              /home/ulises/devkitPro/devkitARM/bin/../lib/gcc/arm-none-eabi/4.9.2/../../../../arm-none-eabi/lib/thumb/libg.a(lib_a-mbsrtowcs.o) (_mbsnrtowcs_r)
/home/ulises/devkitPro/devkitARM/bin/../lib/gcc/arm-none-eabi/4.9.2/../../../../arm-none-eabi/lib/thumb/libg.a(lib_a-memchr.o)
                              /home/ulises/devkitPro/devkitARM/bin/../lib/gcc/arm-none-eabi/4.9.2/../../../../arm-none-eabi/lib/thumb/libg.a(lib_a-svfprintf.o) (memchr)
/home/ulises/devkitPro/devkitARM/bin/../lib/gcc/arm-none-eabi/4.9.2/../../../../arm-none-eabi/lib/thumb/libg.a(lib_a-mprec.o)
                              /home/ulises/devkitPro/devkitARM/bin/../lib/gcc/arm-none-eabi/4.9.2/../../../../arm-none-eabi/lib/thumb/libg.a(lib_a-dtoa.o) (_Balloc)
/home/ulises/devkitPro/devkitARM/bin/../lib/gcc/arm-none-eabi/4.9.2/../../../../arm-none-eabi/lib/thumb/libg.a(lib_a-sccl.o)
                              /home/ulises/devkitPro/devkitARM/bin/../lib/gcc/arm-none-eabi/4.9.2/../../../../arm-none-eabi/lib/thumb/libg.a(lib_a-svfiscanf.o) (__sccl)
/home/ulises/devkitPro/devkitARM/bin/../lib/gcc/arm-none-eabi/4.9.2/../../../../arm-none-eabi/lib/thumb/libg.a(lib_a-s_fpclassify.o)
                              /home/ulises/devkitPro/devkitARM/bin/../lib/gcc/arm-none-eabi/4.9.2/../../../../arm-none-eabi/lib/thumb/libg.a(lib_a-svfprintf.o) (__fpclassifyd)
/home/ulises/devkitPro/devkitARM/bin/../lib/gcc/arm-none-eabi/4.9.2/../../../../arm-none-eabi/lib/thumb/libg.a(lib_a-s_frexp.o)
                              /home/ulises/devkitPro/devkitARM/bin/../lib/gcc/arm-none-eabi/4.9.2/../../../../arm-none-eabi/lib/thumb/libg.a(lib_a-svfprintf.o) (frexp)
/home/ulises/devkitPro/devkitARM/bin/../lib/gcc/arm-none-eabi/4.9.2/../../../../arm-none-eabi/lib/thumb/libg.a(lib_a-strtoll_r.o)
                              /home/ulises/devkitPro/devkitARM/bin/../lib/gcc/arm-none-eabi/4.9.2/../../../../arm-none-eabi/lib/thumb/libg.a(lib_a-svfiscanf.o) (_strtoll_r)
/home/ulises/devkitPro/devkitARM/bin/../lib/gcc/arm-none-eabi/4.9.2/../../../../arm-none-eabi/lib/thumb/libg.a(lib_a-strtoull_r.o)
                              /home/ulises/devkitPro/devkitARM/bin/../lib/gcc/arm-none-eabi/4.9.2/../../../../arm-none-eabi/lib/thumb/libg.a(lib_a-svfiscanf.o) (_strtoull_r)
/home/ulises/devkitPro/devkitARM/bin/../lib/gcc/arm-none-eabi/4.9.2/../../../../arm-none-eabi/lib/thumb/libg.a(lib_a-strtoul.o)
                              /home/ulises/devkitPro/devkitARM/bin/../lib/gcc/arm-none-eabi/4.9.2/../../../../arm-none-eabi/lib/thumb/libg.a(lib_a-svfiscanf.o) (_strtoul_r)
/home/ulises/devkitPro/devkitARM/bin/../lib/gcc/arm-none-eabi/4.9.2/../../../../arm-none-eabi/lib/thumb/libg.a(lib_a-svfiprintf.o)
                              /home/ulises/devkitPro/devkitARM/bin/../lib/gcc/arm-none-eabi/4.9.2/../../../../arm-none-eabi/lib/thumb/libg.a(lib_a-svfprintf.o) (__ssprint_r)
/home/ulises/devkitPro/devkitARM/bin/../lib/gcc/arm-none-eabi/4.9.2/../../../../arm-none-eabi/lib/thumb/libg.a(lib_a-wbuf.o)
                              /home/ulises/devkitPro/devkitARM/bin/../lib/gcc/arm-none-eabi/4.9.2/../../../../arm-none-eabi/lib/thumb/libg.a(lib_a-fputwc.o) (__swbuf_r)
/home/ulises/devkitPro/devkitARM/bin/../lib/gcc/arm-none-eabi/4.9.2/../../../../arm-none-eabi/lib/thumb/libg.a(lib_a-wcsnrtombs.o)
                              /home/ulises/devkitPro/devkitARM/bin/../lib/gcc/arm-none-eabi/4.9.2/../../../../arm-none-eabi/lib/thumb/libg.a(lib_a-wcsrtombs.o) (_wcsnrtombs_r)
/home/ulises/devkitPro/devkitARM/bin/../lib/gcc/arm-none-eabi/4.9.2/../../../../arm-none-eabi/lib/thumb/libg.a(lib_a-environ.o)
                              /home/ulises/devkitPro/devkitARM/bin/../lib/gcc/arm-none-eabi/4.9.2/../../../../arm-none-eabi/lib/thumb/libg.a(lib_a-getenv_r.o) (environ)
/home/ulises/devkitPro/devkitARM/bin/../lib/gcc/arm-none-eabi/4.9.2/../../../../arm-none-eabi/lib/thumb/libg.a(lib_a-envlock.o)
                              /home/ulises/devkitPro/devkitARM/bin/../lib/gcc/arm-none-eabi/4.9.2/../../../../arm-none-eabi/lib/thumb/libg.a(lib_a-getenv_r.o) (__env_lock)
/home/ulises/devkitPro/devkitARM/bin/../lib/gcc/arm-none-eabi/4.9.2/../../../../arm-none-eabi/lib/thumb/libsysbase.a(iosupport.o)
                              /home/ulises/devkitPro/libnds/lib/libfat.a(libfat.o) (FindDevice)
/home/ulises/devkitPro/devkitARM/bin/../lib/gcc/arm-none-eabi/4.9.2/../../../../arm-none-eabi/lib/thumb/libsysbase.a(close.o)
                              /home/ulises/devkitPro/devkitARM/bin/../lib/gcc/arm-none-eabi/4.9.2/../../../../arm-none-eabi/lib/thumb/libg.a(lib_a-stdio.o) (_close_r)
/home/ulises/devkitPro/devkitARM/bin/../lib/gcc/arm-none-eabi/4.9.2/../../../../arm-none-eabi/lib/thumb/libsysbase.a(fstat.o)
                              /home/ulises/devkitPro/devkitARM/bin/../lib/gcc/arm-none-eabi/4.9.2/../../../../arm-none-eabi/lib/thumb/libg.a(lib_a-fseeko.o) (_fstat_r)
/home/ulises/devkitPro/devkitARM/bin/../lib/gcc/arm-none-eabi/4.9.2/../../../../arm-none-eabi/lib/thumb/libsysbase.a(gettod.o)
                              /home/ulises/devkitPro/devkitARM/bin/../lib/gcc/arm-none-eabi/4.9.2/../../../../arm-none-eabi/lib/thumb/libg.a(lib_a-time.o) (_gettimeofday_r)
/home/ulises/devkitPro/devkitARM/bin/../lib/gcc/arm-none-eabi/4.9.2/../../../../arm-none-eabi/lib/thumb/libsysbase.a(isatty.o)
                              /home/ulises/devkitPro/devkitARM/bin/../lib/gcc/arm-none-eabi/4.9.2/../../../../arm-none-eabi/lib/thumb/libg.a(lib_a-makebuf.o) (_isatty_r)
/home/ulises/devkitPro/devkitARM/bin/../lib/gcc/arm-none-eabi/4.9.2/../../../../arm-none-eabi/lib/thumb/libsysbase.a(lseek.o)
                              /home/ulises/devkitPro/devkitARM/bin/../lib/gcc/arm-none-eabi/4.9.2/../../../../arm-none-eabi/lib/thumb/libg.a(lib_a-stdio.o) (_lseek_r)
/home/ulises/devkitPro/devkitARM/bin/../lib/gcc/arm-none-eabi/4.9.2/../../../../arm-none-eabi/lib/thumb/libsysbase.a(open.o)
                              /home/ulises/devkitPro/devkitARM/bin/../lib/gcc/arm-none-eabi/4.9.2/../../../../arm-none-eabi/lib/thumb/libg.a(lib_a-fopen.o) (_open_r)
/home/ulises/devkitPro/devkitARM/bin/../lib/gcc/arm-none-eabi/4.9.2/../../../../arm-none-eabi/lib/thumb/libsysbase.a(read.o)
                              /home/ulises/devkitPro/devkitARM/bin/../lib/gcc/arm-none-eabi/4.9.2/../../../../arm-none-eabi/lib/thumb/libg.a(lib_a-stdio.o) (_read_r)
/home/ulises/devkitPro/devkitARM/bin/../lib/gcc/arm-none-eabi/4.9.2/../../../../arm-none-eabi/lib/thumb/libsysbase.a(sbrk.o)
                              /home/ulises/devkitPro/devkitARM/bin/../lib/gcc/arm-none-eabi/4.9.2/../../../../arm-none-eabi/lib/thumb/libg.a(lib_a-freer.o) (_sbrk_r)
/home/ulises/devkitPro/devkitARM/bin/../lib/gcc/arm-none-eabi/4.9.2/../../../../arm-none-eabi/lib/thumb/libsysbase.a(write.o)
                              /home/ulises/devkitPro/devkitARM/bin/../lib/gcc/arm-none-eabi/4.9.2/../../../../arm-none-eabi/lib/thumb/libg.a(lib_a-stdio.o) (_write_r)
/home/ulises/devkitPro/devkitARM/bin/../lib/gcc/arm-none-eabi/4.9.2/../../../../arm-none-eabi/lib/thumb/libsysbase.a(malloc_vars.o)
                              /home/ulises/devkitPro/devkitARM/bin/../lib/gcc/arm-none-eabi/4.9.2/../../../../arm-none-eabi/lib/thumb/ds_arm9_crt0.o (fake_heap_start)
/home/ulises/devkitPro/devkitARM/bin/../lib/gcc/arm-none-eabi/4.9.2/../../../../arm-none-eabi/lib/thumb/libsysbase.a(chdir.o)
                              /home/ulises/Escritorio/dbz/nflib/lib/libnflib.a(nf_basic.o) (chdir)
/home/ulises/devkitPro/devkitARM/bin/../lib/gcc/arm-none-eabi/4.9.2/../../../../arm-none-eabi/lib/thumb/libsysbase.a(build_argv.o)
                              /home/ulises/devkitPro/devkitARM/bin/../lib/gcc/arm-none-eabi/4.9.2/../../../../arm-none-eabi/lib/thumb/ds_arm9_crt0.o (build_argv)
/home/ulises/devkitPro/devkitARM/bin/../lib/gcc/arm-none-eabi/4.9.2/../../../../arm-none-eabi/lib/thumb/libsysbase.a(flock.o)
                              /home/ulises/devkitPro/devkitARM/bin/../lib/gcc/arm-none-eabi/4.9.2/../../../../arm-none-eabi/lib/thumb/libg.a(lib_a-fclose.o) (__flockfile)
/home/ulises/devkitPro/devkitARM/bin/../lib/gcc/arm-none-eabi/4.9.2/../../../../arm-none-eabi/lib/thumb/libsysbase.a(syscall_support.o)
                              /home/ulises/devkitPro/libnds/lib/libnds9.a(initSystem.o) (__syscalls)
/home/ulises/devkitPro/devkitARM/bin/../lib/gcc/arm-none-eabi/4.9.2/../../../../arm-none-eabi/lib/thumb/libsysbase.a(handle_manager.o)
                              /home/ulises/devkitPro/devkitARM/bin/../lib/gcc/arm-none-eabi/4.9.2/../../../../arm-none-eabi/lib/thumb/libsysbase.a(close.o) (__release_handle)
/home/ulises/devkitPro/devkitARM/bin/../lib/gcc/arm-none-eabi/4.9.2/../../../../arm-none-eabi/lib/thumb/libsysbase.a(getreent.o)
                              /home/ulises/devkitPro/libnds/lib/libnds9.a(console.o) (__getreent)
/home/ulises/devkitPro/devkitARM/bin/../lib/gcc/arm-none-eabi/4.9.2/thumb/libgcc.a(_arm_addsubdf3.o)
                              /home/ulises/devkitPro/devkitARM/bin/../lib/gcc/arm-none-eabi/4.9.2/../../../../arm-none-eabi/lib/thumb/libg.a(lib_a-svfprintf.o) (__aeabi_dsub)
/home/ulises/devkitPro/devkitARM/bin/../lib/gcc/arm-none-eabi/4.9.2/thumb/libgcc.a(_arm_muldivdf3.o)
                              /home/ulises/devkitPro/devkitARM/bin/../lib/gcc/arm-none-eabi/4.9.2/../../../../arm-none-eabi/lib/thumb/libg.a(lib_a-svfprintf.o) (__aeabi_dmul)
/home/ulises/devkitPro/devkitARM/bin/../lib/gcc/arm-none-eabi/4.9.2/thumb/libgcc.a(_arm_cmpdf2.o)
                              /home/ulises/devkitPro/devkitARM/bin/../lib/gcc/arm-none-eabi/4.9.2/../../../../arm-none-eabi/lib/thumb/libg.a(lib_a-svfprintf.o) (__aeabi_dcmpeq)
/home/ulises/devkitPro/devkitARM/bin/../lib/gcc/arm-none-eabi/4.9.2/thumb/libgcc.a(_arm_fixdfsi.o)
                              /home/ulises/devkitPro/devkitARM/bin/../lib/gcc/arm-none-eabi/4.9.2/../../../../arm-none-eabi/lib/thumb/libg.a(lib_a-svfprintf.o) (__aeabi_d2iz)
/home/ulises/devkitPro/devkitARM/bin/../lib/gcc/arm-none-eabi/4.9.2/thumb/libgcc.a(_aeabi_uldivmod.o)
                              /home/ulises/devkitPro/devkitARM/bin/../lib/gcc/arm-none-eabi/4.9.2/../../../../arm-none-eabi/lib/thumb/libg.a(lib_a-svfprintf.o) (__aeabi_uldivmod)
/home/ulises/devkitPro/devkitARM/bin/../lib/gcc/arm-none-eabi/4.9.2/thumb/libgcc.a(bpabi.o)
                              /home/ulises/devkitPro/devkitARM/bin/../lib/gcc/arm-none-eabi/4.9.2/thumb/libgcc.a(_aeabi_uldivmod.o) (__gnu_uldivmod_helper)
/home/ulises/devkitPro/devkitARM/bin/../lib/gcc/arm-none-eabi/4.9.2/thumb/libgcc.a(_divdi3.o)
                              /home/ulises/devkitPro/devkitARM/bin/../lib/gcc/arm-none-eabi/4.9.2/thumb/libgcc.a(bpabi.o) (__divdi3)
/home/ulises/devkitPro/devkitARM/bin/../lib/gcc/arm-none-eabi/4.9.2/thumb/libgcc.a(_udivdi3.o)
                              /home/ulises/devkitPro/devkitARM/bin/../lib/gcc/arm-none-eabi/4.9.2/thumb/libgcc.a(bpabi.o) (__udivdi3)
/home/ulises/devkitPro/devkitARM/bin/../lib/gcc/arm-none-eabi/4.9.2/thumb/libgcc.a(_clzdi2.o)
                              /home/ulises/devkitPro/devkitARM/bin/../lib/gcc/arm-none-eabi/4.9.2/thumb/libgcc.a(_divdi3.o) (__clzdi2)
/home/ulises/devkitPro/devkitARM/bin/../lib/gcc/arm-none-eabi/4.9.2/thumb/libgcc.a(_clzsi2.o)
                              /home/ulises/devkitPro/devkitARM/bin/../lib/gcc/arm-none-eabi/4.9.2/thumb/libgcc.a(_clzdi2.o) (__clzsi2)
/home/ulises/devkitPro/devkitARM/bin/../lib/gcc/arm-none-eabi/4.9.2/../../../../arm-none-eabi/lib/thumb/libg.a(lib_a-errno.o)
                              /home/ulises/devkitPro/devkitARM/bin/../lib/gcc/arm-none-eabi/4.9.2/../../../../arm-none-eabi/lib/thumb/libsysbase.a(handle_manager.o) (__errno)

Allocating common symbols
Common symbol       size              file

currentCopy         0x5c              /home/ulises/devkitPro/libnds/lib/libnds9.a(console.o)
NF_BUFFER_BGTILES   0x80              /home/ulises/Escritorio/dbz/nflib/lib/libnflib.a(nf_tiledbg.o)
NF_TILEBLOCKS       0x10              /home/ulises/Escritorio/dbz/nflib/lib/libnflib.a(nf_tiledbg.o)
NF_BUFFER_BGMAP     0x80              /home/ulises/Escritorio/dbz/nflib/lib/libnflib.a(nf_tiledbg.o)
NF_SPR256GFX        0xc00             /home/ulises/Escritorio/dbz/nflib/lib/libnflib.a(nf_sprite256.o)
fifo_datamsg_data   0x40              /home/ulises/devkitPro/libnds/lib/libnds9.a(fifosystem.o)
__dsimode           0x1               /home/ulises/devkitPro/libnds/lib/libnds9.a(initSystem.o)
NF_BANKS_TILES      0x2               /home/ulises/Escritorio/dbz/nflib/lib/libnflib.a(nf_tiledbg.o)
bgState             0x140             /home/ulises/devkitPro/libnds/lib/libnds9.a(background.o)
fifo_buffer         0x800             /home/ulises/devkitPro/libnds/lib/libnds9.a(fifosystem.o)
NF_BUFFER_SPR256PAL
                    0x100             /home/ulises/Escritorio/dbz/nflib/lib/libnflib.a(nf_sprite256.o)
bgIsTextLut         0x8               /home/ulises/devkitPro/libnds/lib/libnds9.a(background.o)
fifo_value32_func   0x40              /home/ulises/devkitPro/libnds/lib/libnds9.a(fifosystem.o)
fifo_address_func   0x40              /home/ulises/devkitPro/libnds/lib/libnds9.a(fifosystem.o)
NF_BUFFER_SPR256GFX
                    0x400             /home/ulises/Escritorio/dbz/nflib/lib/libnflib.a(nf_sprite256.o)
NF_SPRITEOAM        0x2400            /home/ulises/Escritorio/dbz/nflib/lib/libnflib.a(nf_sprite256.o)
NF_SPR256VRAM       0x1400            /home/ulises/Escritorio/dbz/nflib/lib/libnflib.a(nf_sprite256.o)
NF_ROOTFOLDER       0x20              /home/ulises/Escritorio/dbz/nflib/lib/libnflib.a(nf_basic.o)
fifo_value32_data   0x40              /home/ulises/devkitPro/libnds/lib/libnds9.a(fifosystem.o)
NF_SPRVRAM          0x830             /home/ulises/Escritorio/dbz/nflib/lib/libnflib.a(nf_sprite256.o)
NF_BANKS_MAPS       0x2               /home/ulises/Escritorio/dbz/nflib/lib/libnflib.a(nf_tiledbg.o)
fifo_value32_queue  0x40              /home/ulises/devkitPro/libnds/lib/libnds9.a(fifosystem.o)
fifo_data_queue     0x40              /home/ulises/devkitPro/libnds/lib/libnds9.a(fifosystem.o)
NF_BUFFER_RAWSOUND  0x80              /home/ulises/Escritorio/dbz/nflib/lib/libnflib.a(nf_sound.o)
OamMemorySub        0x400             /home/ulises/devkitPro/libnds/lib/libnds9.a(sprite.o)
NF_SPRPALSLOT       0x40              /home/ulises/Escritorio/dbz/nflib/lib/libnflib.a(nf_sprite256.o)
NF_EXBGPAL          0x600             /home/ulises/Escritorio/dbz/nflib/lib/libnflib.a(nf_tiledbg.o)
NF_RAWSOUND         0x180             /home/ulises/Escritorio/dbz/nflib/lib/libnflib.a(nf_sound.o)
NF_TILEDBG_LAYERS   0x90              /home/ulises/Escritorio/dbz/nflib/lib/libnflib.a(nf_tiledbg.o)
NF_MAPBLOCKS        0x20              /home/ulises/Escritorio/dbz/nflib/lib/libnflib.a(nf_tiledbg.o)
NF_SPR256PAL        0x200             /home/ulises/Escritorio/dbz/nflib/lib/libnflib.a(nf_sprite256.o)
NF_BUFFER_BGPAL     0x80              /home/ulises/Escritorio/dbz/nflib/lib/libnflib.a(nf_tiledbg.o)
punixTime           0x4               /home/ulises/devkitPro/libnds/lib/libnds9.a(timeSupport.o)
NF_TILEDBG          0x680             /home/ulises/Escritorio/dbz/nflib/lib/libnflib.a(nf_tiledbg.o)
fifo_address_data   0x40              /home/ulises/devkitPro/libnds/lib/libnds9.a(fifosystem.o)
fifo_datamsg_func   0x40              /home/ulises/devkitPro/libnds/lib/libnds9.a(fifosystem.o)
OamMemory           0x400             /home/ulises/devkitPro/libnds/lib/libnds9.a(sprite.o)
fifo_address_queue  0x40              /home/ulises/devkitPro/libnds/lib/libnds9.a(fifosystem.o)

Memory Configuration

Name             Origin             Length             Attributes
rom              0x0000000008000000 0x0000000002000000
ewram            0x0000000002000000 0x00000000003ff000
dtcm             0x000000000b000000 0x0000000000004000
vectors          0x0000000001000000 0x0000000000000100
itcm             0x0000000001000100 0x0000000000007f00
*default*        0x0000000000000000 0xffffffffffffffff

Linker script and memory map

                0x0000000001000000                __vectors_start = ORIGIN (vectors)
                0x0000000001000100                __itcm_start = ORIGIN (itcm)
                0x00000000023ff000                __ewram_end = (ORIGIN (ewram) + 0x3ff000)
                0x00000000023ff000                __eheap_end = (ORIGIN (ewram) + 0x3ff000)
                0x000000000b000000                __dtcm_start = ORIGIN (dtcm)
                0x000000000b004000                __dtcm_top = (ORIGIN (dtcm) + 0x4000)
                0x000000000b003ff8                __irq_flags = (__dtcm_top - 0x8)
                0x000000000b003ffc                __irq_vector = (__dtcm_top - 0x4)
                0x000000000b003f00                __sp_svc = (__dtcm_top - 0x100)
                0x000000000b003e00                __sp_irq = (__sp_svc - 0x100)
                0x000000000b003d00                __sp_usr = (__sp_irq - 0x100)

.init           0x0000000002000000      0x23c
                0x0000000002000000                __text_start = .
 *(.init)
 .init          0x0000000002000000      0x230 /home/ulises/devkitPro/devkitARM/bin/../lib/gcc/arm-none-eabi/4.9.2/../../../../arm-none-eabi/lib/thumb/ds_arm9_crt0.o
                0x0000000002000000                _start
 .init          0x0000000002000230        0x4 /home/ulises/devkitPro/devkitARM/bin/../lib/gcc/arm-none-eabi/4.9.2/thumb/crti.o
                0x0000000002000230                _init
 .init          0x0000000002000234        0x8 /home/ulises/devkitPro/devkitARM/bin/../lib/gcc/arm-none-eabi/4.9.2/thumb/crtn.o
                0x000000000200023c                . = ALIGN (0x4)

.plt
 *(.plt)

.text           0x0000000002000240    0x2a350
 *(EXCLUDE_FILE(*.itcm*) .text)
 .text          0x0000000002000240        0x0 /home/ulises/devkitPro/devkitARM/bin/../lib/gcc/arm-none-eabi/4.9.2/../../../../arm-none-eabi/lib/thumb/ds_arm9_crt0.o
 .text          0x0000000002000240        0x0 /home/ulises/devkitPro/devkitARM/bin/../lib/gcc/arm-none-eabi/4.9.2/thumb/crti.o
 .text          0x0000000002000240       0xd4 /home/ulises/devkitPro/devkitARM/bin/../lib/gcc/arm-none-eabi/4.9.2/thumb/crtbegin.o
 .text          0x0000000002000314       0xc8 main.o
                0x0000000002000314                timeout
                0x0000000002000358                _SpriteTouched
                0x00000000020003c8                enableTimer
 .text          0x00000000020003dc      0x868 /home/ulises/Escritorio/dbz/nflib/lib/libnflib.a(nf_2d.o)
                0x00000000020003dc                NF_Set2D
                0x0000000002000440                NF_ShowBg
                0x00000000020004bc                NF_HideBg
                0x0000000002000560                NF_ScrollBg
                0x00000000020008d0                NF_MoveSprite
                0x00000000020008f0                NF_SpriteLayer
                0x000000000200090c                NF_ShowSprite
                0x000000000200092c                NF_HflipSprite
                0x0000000002000948                NF_GetSpriteHflip
                0x0000000002000964                NF_VflipSprite
                0x0000000002000980                NF_GetSpriteVflip
                0x000000000200099c                NF_SpriteFrame
                0x0000000002000a68                NF_EnableSpriteRotScale
                0x0000000002000b00                NF_DisableSpriteRotScale
                0x0000000002000b74                NF_SpriteRotScale
 .text          0x0000000002000c44      0x474 /home/ulises/Escritorio/dbz/nflib/lib/libnflib.a(nf_basic.o)
                0x0000000002000c44                NF_Error
                0x0000000002000ecc                NF_SetRootFolder
                0x0000000002001024                NF_DmaMemCopy
                0x00000000020010a8                NF_GetLanguage
 .text          0x00000000020010b8      0x27c /home/ulises/Escritorio/dbz/nflib/lib/libnflib.a(nf_sound.o)
                0x00000000020010b8                NF_InitRawSoundBuffers
                0x00000000020010e4                NF_ResetRawSoundBuffers
                0x000000000200111c                NF_LoadRawSound
                0x000000000200124c                NF_UnloadRawSound
                0x00000000020012b0                NF_PlayRawSound
 .text          0x0000000002001334     0x1358 /home/ulises/Escritorio/dbz/nflib/lib/libnflib.a(nf_sprite256.o)
                0x0000000002001334                NF_InitSpriteBuffers
                0x0000000002001380                NF_ResetSpriteBuffers
                0x00000000020013b4                NF_InitSpriteSys
                0x00000000020015c0                NF_LoadSpriteGfx
                0x00000000020016d8                NF_UnloadSpriteGfx
                0x0000000002001740                NF_LoadSpritePal
                0x0000000002001844                NF_UnloadSpritePal
                0x0000000002001894                NF_VramSpriteGfx
                0x0000000002001bcc                NF_VramSpriteGfxDefrag
                0x0000000002001de8                NF_FreeSpriteGfx
                0x0000000002001ef0                NF_VramSpritePal
                0x0000000002001fbc                NF_CreateSprite
                0x00000000020022ec                NF_DeleteSprite
                0x000000000200238c                NF_SpriteOamSet
                0x000000000200247c                NF_SpriteSetPalColor
                0x0000000002002514                NF_SpriteEditPalColor
                0x0000000002002590                NF_SpriteUpdatePalette
                0x0000000002002620                NF_SpriteGetPalColor
 .text          0x000000000200268c     0x1a84 /home/ulises/Escritorio/dbz/nflib/lib/libnflib.a(nf_tiledbg.o)
                0x000000000200268c                NF_InitTiledBgBuffers
                0x0000000002002744                NF_ResetTiledBgBuffers
                0x0000000002002794                NF_InitTiledBgSys
                0x00000000020028c8                NF_LoadTiledBg
                0x0000000002002b4c                NF_LoadTilesForBg
                0x0000000002002dcc                NF_UnloadTiledBg
                0x0000000002002e7c                NF_DeleteTiledBg
                0x0000000002003024                NF_CreateTiledBg
                0x00000000020036e4                NF_GetTileMapAdress
                0x00000000020037a0                NF_GetTileOfMap
                0x00000000020037dc                NF_SetTileOfMap
                0x0000000002003820                NF_UpdateVramMap
                0x0000000002003940                NF_BgSetPalColor
                0x00000000020039f0                NF_BgEditPalColor
                0x0000000002003a98                NF_BgUpdatePalette
                0x0000000002003b58                NF_BgGetPalColor
                0x0000000002003bf0                NF_GetTilePal
                0x0000000002003c24                NF_SetTilePal
                0x0000000002003c68                NF_LoadExBgPal
                0x0000000002003d48                NF_UnloadExBgPal
                0x0000000002003d94                NF_VramExBgPal
                0x0000000002003e3c                NF_SetExBgPal
                0x0000000002003efc                NF_SetTileHflip
                0x0000000002003f38                NF_SetTileVflip
                0x0000000002003f74                NF_RotateTileGfx
 .text          0x0000000002004110      0xa10 /home/ulises/devkitPro/libnds/lib/libfilesystem.a(nitrofs.o)
                0x0000000002004a10                nitroFSInit
 .text          0x0000000002004b20      0x338 /home/ulises/devkitPro/libnds/lib/libfat.a(libfat.o)
                0x0000000002004b20                fatMount
                0x0000000002004be0                fatMountSimple
                0x0000000002004bf4                fatUnmount
                0x0000000002004c2c                fatInit
                0x0000000002004d70                fatInitDefault
                0x0000000002004d7c                fatGetVolumeLabel
 .text          0x0000000002004e58      0x768 /home/ulises/devkitPro/libnds/lib/libfat.a(partition.o)
                0x0000000002005064                FindFirstValidPartition_buf
                0x00000000020051e8                FindFirstValidPartition
                0x0000000002005210                _FAT_partition_constructor_buf
                0x00000000020054d0                _FAT_partition_constructor
                0x0000000002005510                _FAT_partition_destructor
                0x0000000002005558                _FAT_partition_getPartitionFromPath
                0x000000000200556c                _FAT_partition_createFSinfo
                0x0000000002005584                _FAT_partition_readFSinfo
                0x0000000002005594                _FAT_partition_writeFSinfo
                0x00000000020055a4                _FAT_getCwdClusterPtr
 .text          0x00000000020055c0       0x10 /home/ulises/devkitPro/libnds/lib/libfat.a(lock.o)
                0x00000000020055c0                _FAT_lock_init
                0x00000000020055c4                _FAT_lock_deinit
                0x00000000020055c8                _FAT_lock
                0x00000000020055cc                _FAT_unlock
 .text          0x00000000020055d0      0x91c /home/ulises/devkitPro/libnds/lib/libfat.a(fatdir.o)
                0x00000000020055d0                _FAT_stat_r
                0x000000000200566c                _FAT_link_r
                0x0000000002005678                _FAT_unlink_r
                0x0000000002005800                _FAT_chdir_r
                0x0000000002005870                _FAT_rename_r
                0x0000000002005a3c                _FAT_mkdir_r
                0x0000000002005cb4                _FAT_statvfs_r
                0x0000000002005d3c                _FAT_diropen_r
                0x0000000002005dfc                _FAT_dirreset_r
                0x0000000002005e48                _FAT_dirnext_r
                0x0000000002005ecc                _FAT_dirclose_r
 .text          0x0000000002005eec      0x528 /home/ulises/devkitPro/libnds/lib/libfat.a(cache.o)
                0x0000000002006028                _FAT_cache_constructor
                0x00000000020060c8                _FAT_cache_readSectors
                0x0000000002006134                _FAT_cache_readPartialSector
                0x0000000002006174                _FAT_cache_readLittleEndianValue
                0x0000000002006200                _FAT_cache_writePartialSector
                0x0000000002006220                _FAT_cache_writeLittleEndianValue
                0x0000000002006274                _FAT_cache_eraseWritePartialSector
                0x00000000020062e0                _FAT_cache_writeSectors
                0x0000000002006358                _FAT_cache_flush
                0x00000000020063b0                _FAT_cache_destructor
                0x00000000020063e4                _FAT_cache_invalidate
 .text          0x0000000002006414     0x1424 /home/ulises/devkitPro/libnds/lib/libfat.a(fatfile.o)
                0x0000000002006764                _FAT_findEntry
                0x00000000020067a4                FAT_getAttr
                0x00000000020067cc                FAT_setAttr
                0x000000000200687c                _FAT_open_r
                0x0000000002006ba0                _FAT_syncToDisc
                0x0000000002006bc0                _FAT_close_r
                0x0000000002006c38                _FAT_read_r
                0x0000000002006f94                _FAT_write_r
                0x0000000002007494                _FAT_seek_r
                0x00000000020075f8                _FAT_fstat_r
                0x000000000200768c                _FAT_ftruncate_r
                0x00000000020077f0                _FAT_fsync_r
 .text          0x0000000002007838        0x8 /home/ulises/devkitPro/libnds/lib/libfat.a(disc.o)
 .text          0x0000000002007840      0x4bc /home/ulises/devkitPro/libnds/lib/libfat.a(file_allocation_table.o)
                0x000000000200798c                _FAT_fat_nextCluster
                0x0000000002007aa8                _FAT_fat_linkFreeCluster
                0x0000000002007b3c                _FAT_fat_linkFreeClusterCleared
                0x0000000002007bac                _FAT_fat_clearLinks
                0x0000000002007c10                _FAT_fat_trimChain
                0x0000000002007c9c                _FAT_fat_lastCluster
                0x0000000002007cd0                _FAT_fat_freeClusterCount
 .text          0x0000000002007cfc       0xb8 /home/ulises/devkitPro/libnds/lib/libfat.a(filetime.o)
                0x0000000002007cfc                _FAT_filetime_getTimeFromRTC
                0x0000000002007d3c                _FAT_filetime_getDateFromRTC
                0x0000000002007d7c                _FAT_filetime_to_time_t
 .text          0x0000000002007db4     0x14c0 /home/ulises/devkitPro/libnds/lib/libfat.a(directory.o)
                0x0000000002008058                _FAT_directory_entryGetCluster
                0x0000000002008074                _FAT_directory_getNextEntry
                0x00000000020082f0                _FAT_directory_getFirstEntry
                0x0000000002008310                _FAT_directory_getRootEntry
                0x000000000200836c                _FAT_directory_getVolumeLabel
                0x0000000002008430                _FAT_directory_entryFromPosition
                0x0000000002008578                _FAT_directory_entryFromPath
                0x00000000020087ec                _FAT_directory_removeEntry
                0x00000000020088b4                _FAT_directory_addEntry
                0x0000000002009150                _FAT_directory_chdir
                0x000000000200919c                _FAT_directory_entryStat
 .text          0x0000000002009274       0xf4 /home/ulises/devkitPro/libnds/lib/libnds9.a(keys.o)
                0x0000000002009274                scanKeys
                0x00000000020092e0                keysHeld
                0x00000000020092ec                keysDown
                0x00000000020092fc                keysDownRepeat
                0x000000000200930c                keysSetRepeat
                0x0000000002009324                keysUp
                0x0000000002009334                keysCurrent
 .text          0x0000000002009368      0x3fc /home/ulises/devkitPro/libnds/lib/libnds9.a(sprite.o)
                0x0000000002009368                oamInit
                0x0000000002009484                oamDisable
                0x00000000020094b0                oamEnable
                0x00000000020094d0                oamGetGfxPtr
                0x0000000002009508                oamClear
                0x0000000002009530                oamGfxPtrToOffset
                0x0000000002009560                oamSet
                0x00000000020096b4                oamUpdate
                0x0000000002009714                oamRotateScale
 .text          0x0000000002009764      0x208 /home/ulises/devkitPro/libnds/lib/libnds9.a(sound.o)
                0x0000000002009764                micBufferHandler
                0x0000000002009798                soundEnable
                0x00000000020097a8                soundDisable
                0x00000000020097b8                soundPlayPSG
                0x00000000020097ec                soundPlayNoise
                0x0000000002009820                soundPlaySample
                0x0000000002009888                soundPause
                0x000000000200989c                soundKill
                0x00000000020098b0                soundResume
                0x00000000020098c4                soundSetVolume
                0x00000000020098d8                soundSetPan
                0x00000000020098e8                soundSetFreq
                0x00000000020098fc                soundSetWaveDuty
                0x0000000002009910                soundMicRecord
                0x000000000200995c                soundMicOff
 .text          0x000000000200996c      0x244 /home/ulises/devkitPro/libnds/lib/libnds9.a(trig.o)
                0x000000000200996c                asinComp
                0x0000000002009990                sinLutLookup
                0x00000000020099c8                sinLerp
                0x0000000002009a04                cosLerp
                0x0000000002009a18                tanLutLookup
                0x0000000002009a50                tanLerp
                0x0000000002009af8                asinLerp
                0x0000000002009b74                acosLerp
                0x0000000002009b88                atanComp
 .text          0x0000000002009bb0      0xa54 /home/ulises/devkitPro/libnds/lib/libnds9.a(console.o)
                0x0000000002009c5c                nocash_write
                0x0000000002009c6c                consoleGetDefault
                0x0000000002009c78                consoleSelect
                0x0000000002009c88                consoleDebugInit
                0x0000000002009cd8                consolePrintChar
                0x0000000002009ebc                consoleLoadFont
                0x000000000200a148                consoleSetFont
                0x000000000200a168                consoleInit
                0x000000000200a2d0                consoleDemoInit
                0x000000000200a314                con_write
                0x000000000200a5d4                consoleClear
                0x000000000200a5e4                consoleSetWindow
 .text          0x000000000200a604      0x45c /home/ulises/devkitPro/libnds/lib/libnds9.a(sprite_alloc.o)
                0x000000000200a634                oamAllocReset
                0x000000000200a650                oamAllocateGfx
                0x000000000200a880                oamFreeGfx
                0x000000000200aa10                oamCountFragments
 .text          0x000000000200aa60       0x48 /home/ulises/devkitPro/libnds/lib/libnds9.a(touch.o)
                0x000000000200aa60                touchRead
                0x000000000200aa84                touchReadXY
 .text          0x000000000200aaa8      0x1f8 /home/ulises/devkitPro/libnds/lib/libnds9.a(video.o)
                0x000000000200aaa8                vramSetPrimaryBanks
                0x000000000200aaec                vramSetMainBanks
                0x000000000200ab30                vramSetBanks_EFG
                0x000000000200ab68                vramRestorePrimaryBanks
                0x000000000200ab74                vramRestoreMainBanks
                0x000000000200ab80                vramRestoreBanks_EFG
                0x000000000200ab8c                setBrightness
                0x000000000200abcc                vramDefault
 .text          0x000000000200aca0      0x350 /home/ulises/devkitPro/libnds/lib/libnds9.a(background.o)
                0x000000000200aca0                bgIsText
                0x000000000200acac                checkIfText
                0x000000000200ad04                bgUpdate
                0x000000000200adf8                bgInit_call
                0x000000000200aee8                bgInitSub_call
 .text          0x000000000200aff0      0x22c /home/ulises/devkitPro/libnds/lib/libnds9.a(dldi.o)
                0x000000000200aff0                dldiGetInternal
                0x000000000200b024                dldiIsValid
                0x000000000200b05c                dldiFixDriverAddresses
                0x000000000200b134                dldiLoadFromFile
                0x000000000200b210                dldiFree
 .text          0x000000000200b21c      0x148 /home/ulises/devkitPro/libnds/lib/libnds9.a(dsi_sd.o)
                0x000000000200b21c                sdio_ClearStatus
                0x000000000200b22c                sdio_Shutdown
                0x000000000200b23c                sdio_Startup
                0x000000000200b288                sdio_IsInserted
                0x000000000200b2bc                sdio_ReadSectors
                0x000000000200b310                sdio_WriteSectors
 .text          0x000000000200b364      0x14c /home/ulises/devkitPro/libnds/lib/libnds9.a(initSystem.o)
                0x000000000200b364                initSystem
 .text          0x000000000200b4b0      0xcb8 /home/ulises/devkitPro/libnds/lib/libnds9.a(fifosystem.o)
                0x000000000200b774                fifoSetValue32Handler
                0x000000000200b7e8                fifoSendAddress
                0x000000000200b814                fifoSendValue32
                0x000000000200b850                fifoSendDatamsg
                0x000000000200b8c4                fifoGetAddress
                0x000000000200b930                fifoSetAddressHandler
                0x000000000200b9a4                fifoGetValue32
                0x000000000200b9b8                fifoGetDatamsg
                0x000000000200be6c                fifoSetDatamsgHandler
                0x000000000200bf00                fifoCheckAddress
                0x000000000200bf24                fifoCheckDatamsg
                0x000000000200bf48                fifoCheckDatamsgLength
                0x000000000200bf78                fifoCheckValue32
                0x000000000200bf9c                fifoInit
 .text          0x000000000200c168      0x23c /home/ulises/devkitPro/libnds/lib/libnds9.a(card.o)
                0x000000000200c168                cardWriteCommand
                0x000000000200c18c                cardPolledTransfer
                0x000000000200c1dc                cardStartTransfer
                0x000000000200c238                cardWriteAndRead
                0x000000000200c27c                cardParamCommand
                0x000000000200c2ac                cardReadID
                0x000000000200c2d4                cardReset
                0x000000000200c348                cardReadHeader
 .text          0x000000000200c3a4       0x5c /home/ulises/devkitPro/libnds/lib/libnds9.a(libnds_exit.arm.o)
                0x000000000200c3a4                systemErrorExit
                0x000000000200c3a8                __libnds_exit
 .text          0x000000000200c400      0x1ec /home/ulises/devkitPro/libnds/lib/libnds9.a(interrupts.o)
                0x000000000200c400                irqDummy
                0x000000000200c404                irqSet
                0x000000000200c470                irqInit
                0x000000000200c4bc                irqInitHandler
                0x000000000200c4ec                irqEnable
                0x000000000200c550                irqDisable
                0x000000000200c5b4                irqClear
 .text          0x000000000200c5ec       0x88 /home/ulises/devkitPro/libnds/lib/libnds9.a(dcache.o)
                0x000000000200c5ec                DC_FlushAll
                0x000000000200c618                DC_FlushRange
                0x000000000200c63c                DC_InvalidateAll
                0x000000000200c648                DC_InvalidateRange
 *fill*         0x000000000200c674        0xc ff
 .text          0x000000000200c680     0x8000 /home/ulises/devkitPro/libnds/lib/libnds9.a(dldi_stub.o)
                0x000000000200c680                _io_dldi_stub
 .text          0x0000000002014680      0x1b4 /home/ulises/devkitPro/libnds/lib/libnds9.a(mpu_setup.o)
                0x0000000002014680                __libnds_mpu_setup
                0x00000000020147c0                memCached
                0x00000000020147d8                memUncached
 *fill*         0x0000000002014834        0xc ff
 .text          0x0000000002014840       0x30 /home/ulises/devkitPro/libnds/lib/libnds9.a(swiSoftReset.o)
                0x0000000002014840                swiSoftReset
 .text          0x0000000002014870       0xa4 /home/ulises/devkitPro/libnds/lib/libnds9.a(debugprint.o)
                0x0000000002014870                nocashWrite
                0x0000000002014872                nocashMessage
 *fill*         0x0000000002014914        0xc ff
 .text          0x0000000002014920       0x70 /home/ulises/devkitPro/libnds/lib/libnds9.a(biosCalls.o)
                0x0000000002014920                swiDelay
                0x0000000002014924                swiIntrWait
                0x0000000002014928                swiWaitForVBlank
                0x000000000201492c                swiSleep
                0x0000000002014930                swiChangeSoundBias
                0x0000000002014934                swiDivide
                0x0000000002014938                swiRemainder
                0x000000000201493e                swiDivMod
                0x000000000201494a                swiCopy
                0x000000000201494e                swiFastCopy
                0x0000000002014952                swiSqrt
                0x0000000002014956                swiCRC16
                0x000000000201495a                swiIsDebugger
                0x000000000201495e                swiUnpackBits
                0x0000000002014962                swiDecompressLZSSWram
                0x0000000002014966                swiDecompressLZSSVramNTR
                0x000000000201496a                swiDecompressLZSSVramTWL
                0x000000000201496e                swiDecompressHuffman
                0x0000000002014972                swiDecompressRLEWram
                0x0000000002014976                swiDecompressRLEVram
                0x000000000201497a                swiWaitForIRQ
                0x000000000201497e                swiDecodeDelta8
                0x0000000002014982                swiDecodeDelta16
                0x0000000002014986                swiSetHaltCR
 .text          0x0000000002014990        0x0 /home/ulises/devkitPro/libnds/lib/libnds9.a(interruptDispatcher.o)
 .text          0x0000000002014990        0x0 /home/ulises/devkitPro/libnds/lib/libnds9.a(default_font.bin.o)
 .text          0x0000000002014990      0x134 /home/ulises/devkitPro/libnds/lib/libnds9.a(system.o)
                0x0000000002014990                setSDcallback
                0x000000000201499c                systemMsgHandler
                0x00000000020149ec                systemSleep
                0x0000000002014a04                systemValueHandler
                0x0000000002014a40                powerOn
                0x0000000002014a6c                powerOff
                0x0000000002014a94                ledBlink
                0x0000000002014aa4                getBatteryLevel
 .text          0x0000000002014ac4       0x24 /home/ulises/devkitPro/libnds/lib/libnds9.a(timeSupport.o)
                0x0000000002014ac4                __libnds_gtod
 .text          0x0000000002014ae8      0x11c /home/ulises/devkitPro/devkitARM/bin/../lib/gcc/arm-none-eabi/4.9.2/thumb/libgcc.a(_udivsi3.o)
                0x0000000002014ae8                __udivsi3
                0x0000000002014ae8                __aeabi_uidiv
                0x0000000002014be4                __aeabi_uidivmod
 .text          0x0000000002014c04      0x150 /home/ulises/devkitPro/devkitARM/bin/../lib/gcc/arm-none-eabi/4.9.2/thumb/libgcc.a(_divsi3.o)
                0x0000000002014c04                __aeabi_idiv
                0x0000000002014c04                __divsi3
                0x0000000002014d34                __aeabi_idivmod
 .text          0x0000000002014d54        0x4 /home/ulises/devkitPro/devkitARM/bin/../lib/gcc/arm-none-eabi/4.9.2/thumb/libgcc.a(_dvmd_tls.o)
                0x0000000002014d54                __aeabi_ldiv0
                0x0000000002014d54                __aeabi_idiv0
 .text          0x0000000002014d58       0x60 /home/ulises/devkitPro/devkitARM/bin/../lib/gcc/arm-none-eabi/4.9.2/thumb/libgcc.a(_muldi3.o)
                0x0000000002014d58                __aeabi_lmul
                0x0000000002014d58                __muldi3
 .text          0x0000000002014db8        0x0 /home/ulises/devkitPro/devkitARM/bin/../lib/gcc/arm-none-eabi/4.9.2/../../../../arm-none-eabi/lib/thumb/libg.a(lib_a-bsearch.o)
 .text          0x0000000002014db8        0x0 /home/ulises/devkitPro/devkitARM/bin/../lib/gcc/arm-none-eabi/4.9.2/../../../../arm-none-eabi/lib/thumb/libg.a(lib_a-calloc.o)
 .text          0x0000000002014db8        0x0 /home/ulises/devkitPro/devkitARM/bin/../lib/gcc/arm-none-eabi/4.9.2/../../../../arm-none-eabi/lib/thumb/libg.a(lib_a-callocr.o)
 .text          0x0000000002014db8        0x0 /home/ulises/devkitPro/devkitARM/bin/../lib/gcc/arm-none-eabi/4.9.2/../../../../arm-none-eabi/lib/thumb/libg.a(lib_a-ctype_.o)
 .text          0x0000000002014db8        0x0 /home/ulises/devkitPro/devkitARM/bin/../lib/gcc/arm-none-eabi/4.9.2/../../../../arm-none-eabi/lib/thumb/libg.a(lib_a-fclose.o)
 .text          0x0000000002014db8        0x0 /home/ulises/devkitPro/devkitARM/bin/../lib/gcc/arm-none-eabi/4.9.2/../../../../arm-none-eabi/lib/thumb/libg.a(lib_a-fflush.o)
 .text          0x0000000002014db8        0x0 /home/ulises/devkitPro/devkitARM/bin/../lib/gcc/arm-none-eabi/4.9.2/../../../../arm-none-eabi/lib/thumb/libg.a(lib_a-findfp.o)
 .text          0x0000000002014db8        0x0 /home/ulises/devkitPro/devkitARM/bin/../lib/gcc/arm-none-eabi/4.9.2/../../../../arm-none-eabi/lib/thumb/libg.a(lib_a-fopen.o)
 .text          0x0000000002014db8        0x0 /home/ulises/devkitPro/devkitARM/bin/../lib/gcc/arm-none-eabi/4.9.2/../../../../arm-none-eabi/lib/thumb/libg.a(lib_a-fread.o)
 .text          0x0000000002014db8        0x0 /home/ulises/devkitPro/devkitARM/bin/../lib/gcc/arm-none-eabi/4.9.2/../../../../arm-none-eabi/lib/thumb/libg.a(lib_a-freer.o)
 .text          0x0000000002014db8        0x0 /home/ulises/devkitPro/devkitARM/bin/../lib/gcc/arm-none-eabi/4.9.2/../../../../arm-none-eabi/lib/thumb/libg.a(lib_a-fseek.o)
 .text          0x0000000002014db8        0x0 /home/ulises/devkitPro/devkitARM/bin/../lib/gcc/arm-none-eabi/4.9.2/../../../../arm-none-eabi/lib/thumb/libg.a(lib_a-fseeko.o)
 .text          0x0000000002014db8        0x0 /home/ulises/devkitPro/devkitARM/bin/../lib/gcc/arm-none-eabi/4.9.2/../../../../arm-none-eabi/lib/thumb/libg.a(lib_a-ftell.o)
 .text          0x0000000002014db8        0x0 /home/ulises/devkitPro/devkitARM/bin/../lib/gcc/arm-none-eabi/4.9.2/../../../../arm-none-eabi/lib/thumb/libg.a(lib_a-ftello.o)
 .text          0x0000000002014db8        0x0 /home/ulises/devkitPro/devkitARM/bin/../lib/gcc/arm-none-eabi/4.9.2/../../../../arm-none-eabi/lib/thumb/libg.a(lib_a-fwalk.o)
 .text          0x0000000002014db8        0x0 /home/ulises/devkitPro/devkitARM/bin/../lib/gcc/arm-none-eabi/4.9.2/../../../../arm-none-eabi/lib/thumb/libg.a(lib_a-impure.o)
 .text          0x0000000002014db8        0x0 /home/ulises/devkitPro/devkitARM/bin/../lib/gcc/arm-none-eabi/4.9.2/../../../../arm-none-eabi/lib/thumb/libg.a(lib_a-init.o)
 .text          0x0000000002014db8        0x0 /home/ulises/devkitPro/devkitARM/bin/../lib/gcc/arm-none-eabi/4.9.2/../../../../arm-none-eabi/lib/thumb/libg.a(lib_a-iprintf.o)
 .text          0x0000000002014db8        0x0 /home/ulises/devkitPro/devkitARM/bin/../lib/gcc/arm-none-eabi/4.9.2/../../../../arm-none-eabi/lib/thumb/libg.a(lib_a-lcltime_r.o)
 .text          0x0000000002014db8        0x0 /home/ulises/devkitPro/devkitARM/bin/../lib/gcc/arm-none-eabi/4.9.2/../../../../arm-none-eabi/lib/thumb/libg.a(lib_a-locale.o)
 .text          0x0000000002014db8        0x0 /home/ulises/devkitPro/devkitARM/bin/../lib/gcc/arm-none-eabi/4.9.2/../../../../arm-none-eabi/lib/thumb/libg.a(lib_a-makebuf.o)
 .text          0x0000000002014db8        0x0 /home/ulises/devkitPro/devkitARM/bin/../lib/gcc/arm-none-eabi/4.9.2/../../../../arm-none-eabi/lib/thumb/libg.a(lib_a-malloc.o)
 .text          0x0000000002014db8        0x0 /home/ulises/devkitPro/devkitARM/bin/../lib/gcc/arm-none-eabi/4.9.2/../../../../arm-none-eabi/lib/thumb/libg.a(lib_a-mallocr.o)
 .text          0x0000000002014db8        0x0 /home/ulises/devkitPro/devkitARM/bin/../lib/gcc/arm-none-eabi/4.9.2/../../../../arm-none-eabi/lib/thumb/libg.a(lib_a-mbrtowc.o)
 .text          0x0000000002014db8        0x0 /home/ulises/devkitPro/devkitARM/bin/../lib/gcc/arm-none-eabi/4.9.2/../../../../arm-none-eabi/lib/thumb/libg.a(lib_a-mbsrtowcs.o)
 .text          0x0000000002014db8        0x0 /home/ulises/devkitPro/devkitARM/bin/../lib/gcc/arm-none-eabi/4.9.2/../../../../arm-none-eabi/lib/thumb/libg.a(lib_a-mbtowc_r.o)
 .text          0x0000000002014db8        0x0 /home/ulises/devkitPro/devkitARM/bin/../lib/gcc/arm-none-eabi/4.9.2/../../../../arm-none-eabi/lib/thumb/libg.a(lib_a-memcmp.o)
 .text          0x0000000002014db8        0x0 /home/ulises/devkitPro/devkitARM/bin/../lib/gcc/arm-none-eabi/4.9.2/../../../../arm-none-eabi/lib/thumb/libg.a(lib_a-memcpy.o)
 .text          0x0000000002014db8        0x0 /home/ulises/devkitPro/devkitARM/bin/../lib/gcc/arm-none-eabi/4.9.2/../../../../arm-none-eabi/lib/thumb/libg.a(lib_a-memmove.o)
 .text          0x0000000002014db8        0x0 /home/ulises/devkitPro/devkitARM/bin/../lib/gcc/arm-none-eabi/4.9.2/../../../../arm-none-eabi/lib/thumb/libg.a(lib_a-memset.o)
 .text          0x0000000002014db8        0x0 /home/ulises/devkitPro/devkitARM/bin/../lib/gcc/arm-none-eabi/4.9.2/../../../../arm-none-eabi/lib/thumb/libg.a(lib_a-mktime.o)
 .text          0x0000000002014db8        0x0 /home/ulises/devkitPro/devkitARM/bin/../lib/gcc/arm-none-eabi/4.9.2/../../../../arm-none-eabi/lib/thumb/libg.a(lib_a-mlock.o)
 .text          0x0000000002014db8        0x0 /home/ulises/devkitPro/devkitARM/bin/../lib/gcc/arm-none-eabi/4.9.2/../../../../arm-none-eabi/lib/thumb/libg.a(lib_a-month_lengths.o)
 .text          0x0000000002014db8        0x0 /home/ulises/devkitPro/devkitARM/bin/../lib/gcc/arm-none-eabi/4.9.2/../../../../arm-none-eabi/lib/thumb/libg.a(lib_a-realloc.o)
 .text          0x0000000002014db8        0x0 /home/ulises/devkitPro/devkitARM/bin/../lib/gcc/arm-none-eabi/4.9.2/../../../../arm-none-eabi/lib/thumb/libg.a(lib_a-reallocr.o)
 .text          0x0000000002014db8        0x0 /home/ulises/devkitPro/devkitARM/bin/../lib/gcc/arm-none-eabi/4.9.2/../../../../arm-none-eabi/lib/thumb/libg.a(lib_a-refill.o)
 .text          0x0000000002014db8        0x0 /home/ulises/devkitPro/devkitARM/bin/../lib/gcc/arm-none-eabi/4.9.2/../../../../arm-none-eabi/lib/thumb/libg.a(lib_a-rewind.o)
 .text          0x0000000002014db8        0x0 /home/ulises/devkitPro/devkitARM/bin/../lib/gcc/arm-none-eabi/4.9.2/../../../../arm-none-eabi/lib/thumb/libg.a(lib_a-setvbuf.o)
 .text          0x0000000002014db8        0x0 /home/ulises/devkitPro/devkitARM/bin/../lib/gcc/arm-none-eabi/4.9.2/../../../../arm-none-eabi/lib/thumb/libg.a(lib_a-siscanf.o)
 .text          0x0000000002014db8        0x0 /home/ulises/devkitPro/devkitARM/bin/../lib/gcc/arm-none-eabi/4.9.2/../../../../arm-none-eabi/lib/thumb/libg.a(lib_a-sprintf.o)
 .text          0x0000000002014db8        0x0 /home/ulises/devkitPro/devkitARM/bin/../lib/gcc/arm-none-eabi/4.9.2/../../../../arm-none-eabi/lib/thumb/libg.a(lib_a-stdio.o)
 .text          0x0000000002014db8        0x0 /home/ulises/devkitPro/devkitARM/bin/../lib/gcc/arm-none-eabi/4.9.2/../../../../arm-none-eabi/lib/thumb/libg.a(lib_a-stpcpy.o)
 .text          0x0000000002014db8        0x0 /home/ulises/devkitPro/devkitARM/bin/../lib/gcc/arm-none-eabi/4.9.2/../../../../arm-none-eabi/lib/thumb/libg.a(lib_a-strcasecmp.o)
 .text          0x0000000002014db8        0x0 /home/ulises/devkitPro/devkitARM/bin/../lib/gcc/arm-none-eabi/4.9.2/../../../../arm-none-eabi/lib/thumb/libg.a(lib_a-strcat.o)
 .text          0x0000000002014db8        0x0 /home/ulises/devkitPro/devkitARM/bin/../lib/gcc/arm-none-eabi/4.9.2/../../../../arm-none-eabi/lib/thumb/libg.a(lib_a-strchr.o)
 .text          0x0000000002014db8      0x224 /home/ulises/devkitPro/devkitARM/bin/../lib/gcc/arm-none-eabi/4.9.2/../../../../arm-none-eabi/lib/thumb/libg.a(lib_a-strcmp.o)
                0x0000000002014db8                strcmp
 .text          0x0000000002014fdc        0x0 /home/ulises/devkitPro/devkitARM/bin/../lib/gcc/arm-none-eabi/4.9.2/../../../../arm-none-eabi/lib/thumb/libg.a(lib_a-strcpy.o)
 .text          0x0000000002014fdc        0x0 /home/ulises/devkitPro/devkitARM/bin/../lib/gcc/arm-none-eabi/4.9.2/../../../../arm-none-eabi/lib/thumb/libg.a(lib_a-strdup.o)
 .text          0x0000000002014fdc        0x0 /home/ulises/devkitPro/devkitARM/bin/../lib/gcc/arm-none-eabi/4.9.2/../../../../arm-none-eabi/lib/thumb/libg.a(lib_a-strdup_r.o)
 .text          0x0000000002014fdc        0x0 /home/ulises/devkitPro/devkitARM/bin/../lib/gcc/arm-none-eabi/4.9.2/../../../../arm-none-eabi/lib/thumb/libg.a(lib_a-strlcpy.o)
 .text          0x0000000002014fdc        0x0 /home/ulises/devkitPro/devkitARM/bin/../lib/gcc/arm-none-eabi/4.9.2/../../../../arm-none-eabi/lib/thumb/libg.a(lib_a-strlen.o)
 .text          0x0000000002014fdc        0x0 /home/ulises/devkitPro/devkitARM/bin/../lib/gcc/arm-none-eabi/4.9.2/../../../../arm-none-eabi/lib/thumb/libg.a(lib_a-strncasecmp.o)
 .text          0x0000000002014fdc        0x0 /home/ulises/devkitPro/devkitARM/bin/../lib/gcc/arm-none-eabi/4.9.2/../../../../arm-none-eabi/lib/thumb/libg.a(lib_a-strncmp.o)
 .text          0x0000000002014fdc        0x0 /home/ulises/devkitPro/devkitARM/bin/../lib/gcc/arm-none-eabi/4.9.2/../../../../arm-none-eabi/lib/thumb/libg.a(lib_a-strncpy.o)
 .text          0x0000000002014fdc        0x0 /home/ulises/devkitPro/devkitARM/bin/../lib/gcc/arm-none-eabi/4.9.2/../../../../arm-none-eabi/lib/thumb/libg.a(lib_a-strnlen.o)
 .text          0x0000000002014fdc        0x0 /home/ulises/devkitPro/devkitARM/bin/../lib/gcc/arm-none-eabi/4.9.2/../../../../arm-none-eabi/lib/thumb/libg.a(lib_a-strpbrk.o)
 .text          0x0000000002014fdc        0x0 /home/ulises/devkitPro/devkitARM/bin/../lib/gcc/arm-none-eabi/4.9.2/../../../../arm-none-eabi/lib/thumb/libg.a(lib_a-strrchr.o)
 .text          0x0000000002014fdc        0x0 /home/ulises/devkitPro/devkitARM/bin/../lib/gcc/arm-none-eabi/4.9.2/../../../../arm-none-eabi/lib/thumb/libg.a(lib_a-strtol.o)
 .text          0x0000000002014fdc        0x0 /home/ulises/devkitPro/devkitARM/bin/../lib/gcc/arm-none-eabi/4.9.2/../../../../arm-none-eabi/lib/thumb/libg.a(lib_a-svfiscanf.o)
 .text          0x0000000002014fdc        0x0 /home/ulises/devkitPro/devkitARM/bin/../lib/gcc/arm-none-eabi/4.9.2/../../../../arm-none-eabi/lib/thumb/libg.a(lib_a-svfprintf.o)
 .text          0x0000000002014fdc        0x0 /home/ulises/devkitPro/devkitARM/bin/../lib/gcc/arm-none-eabi/4.9.2/../../../../arm-none-eabi/lib/thumb/libg.a(lib_a-sysclose.o)
 .text          0x0000000002014fdc        0x0 /home/ulises/devkitPro/devkitARM/bin/../lib/gcc/arm-none-eabi/4.9.2/../../../../arm-none-eabi/lib/thumb/libg.a(lib_a-syslseek.o)
 .text          0x0000000002014fdc        0x0 /home/ulises/devkitPro/devkitARM/bin/../lib/gcc/arm-none-eabi/4.9.2/../../../../arm-none-eabi/lib/thumb/libg.a(lib_a-sysopen.o)
 .text          0x0000000002014fdc        0x0 /home/ulises/devkitPro/devkitARM/bin/../lib/gcc/arm-none-eabi/4.9.2/../../../../arm-none-eabi/lib/thumb/libg.a(lib_a-sysread.o)
 .text          0x0000000002014fdc        0x0 /home/ulises/devkitPro/devkitARM/bin/../lib/gcc/arm-none-eabi/4.9.2/../../../../arm-none-eabi/lib/thumb/libg.a(lib_a-time.o)
 .text          0x0000000002014fdc        0x0 /home/ulises/devkitPro/devkitARM/bin/../lib/gcc/arm-none-eabi/4.9.2/../../../../arm-none-eabi/lib/thumb/libg.a(lib_a-towlower.o)
 .text          0x0000000002014fdc        0x0 /home/ulises/devkitPro/devkitARM/bin/../lib/gcc/arm-none-eabi/4.9.2/../../../../arm-none-eabi/lib/thumb/libg.a(lib_a-towupper.o)
 .text          0x0000000002014fdc        0x0 /home/ulises/devkitPro/devkitARM/bin/../lib/gcc/arm-none-eabi/4.9.2/../../../../arm-none-eabi/lib/thumb/libg.a(lib_a-tzcalc_limits.o)
 .text          0x0000000002014fdc        0x0 /home/ulises/devkitPro/devkitARM/bin/../lib/gcc/arm-none-eabi/4.9.2/../../../../arm-none-eabi/lib/thumb/libg.a(lib_a-tzlock.o)
 .text          0x0000000002014fdc        0x0 /home/ulises/devkitPro/devkitARM/bin/../lib/gcc/arm-none-eabi/4.9.2/../../../../arm-none-eabi/lib/thumb/libg.a(lib_a-tzvars.o)
 .text          0x0000000002014fdc        0x0 /home/ulises/devkitPro/devkitARM/bin/../lib/gcc/arm-none-eabi/4.9.2/../../../../arm-none-eabi/lib/thumb/libg.a(lib_a-ungetc.o)
 .text          0x0000000002014fdc        0x0 /home/ulises/devkitPro/devkitARM/bin/../lib/gcc/arm-none-eabi/4.9.2/../../../../arm-none-eabi/lib/thumb/libg.a(lib_a-vfiprintf.o)
 .text          0x0000000002014fdc        0x0 /home/ulises/devkitPro/devkitARM/bin/../lib/gcc/arm-none-eabi/4.9.2/../../../../arm-none-eabi/lib/thumb/libg.a(lib_a-wcrtomb.o)
 .text          0x0000000002014fdc        0x0 /home/ulises/devkitPro/devkitARM/bin/../lib/gcc/arm-none-eabi/4.9.2/../../../../arm-none-eabi/lib/thumb/libg.a(lib_a-wcsrtombs.o)
 .text          0x0000000002014fdc        0x0 /home/ulises/devkitPro/devkitARM/bin/../lib/gcc/arm-none-eabi/4.9.2/../../../../arm-none-eabi/lib/thumb/libg.a(lib_a-wctob.o)
 .text          0x0000000002014fdc        0x0 /home/ulises/devkitPro/devkitARM/bin/../lib/gcc/arm-none-eabi/4.9.2/../../../../arm-none-eabi/lib/thumb/libg.a(lib_a-wctomb_r.o)
 .text          0x0000000002014fdc        0x0 /home/ulises/devkitPro/devkitARM/bin/../lib/gcc/arm-none-eabi/4.9.2/../../../../arm-none-eabi/lib/thumb/libg.a(lib_a-wsetup.o)
 .text          0x0000000002014fdc        0x0 /home/ulises/devkitPro/devkitARM/bin/../lib/gcc/arm-none-eabi/4.9.2/../../../../arm-none-eabi/lib/thumb/libg.a(lib_a-div.o)
 .text          0x0000000002014fdc        0x0 /home/ulises/devkitPro/devkitARM/bin/../lib/gcc/arm-none-eabi/4.9.2/../../../../arm-none-eabi/lib/thumb/libg.a(lib_a-dtoa.o)
 .text          0x0000000002014fdc        0x0 /home/ulises/devkitPro/devkitARM/bin/../lib/gcc/arm-none-eabi/4.9.2/../../../../arm-none-eabi/lib/thumb/libg.a(lib_a-flags.o)
 .text          0x0000000002014fdc        0x0 /home/ulises/devkitPro/devkitARM/bin/../lib/gcc/arm-none-eabi/4.9.2/../../../../arm-none-eabi/lib/thumb/libg.a(lib_a-fputwc.o)
 .text          0x0000000002014fdc        0x0 /home/ulises/devkitPro/devkitARM/bin/../lib/gcc/arm-none-eabi/4.9.2/../../../../arm-none-eabi/lib/thumb/libg.a(lib_a-fvwrite.o)
 .text          0x0000000002014fdc        0x0 /home/ulises/devkitPro/devkitARM/bin/../lib/gcc/arm-none-eabi/4.9.2/../../../../arm-none-eabi/lib/thumb/libg.a(lib_a-getenv_r.o)
 .text          0x0000000002014fdc        0x0 /home/ulises/devkitPro/devkitARM/bin/../lib/gcc/arm-none-eabi/4.9.2/../../../../arm-none-eabi/lib/thumb/libg.a(lib_a-gettzinfo.o)
 .text          0x0000000002014fdc        0x0 /home/ulises/devkitPro/devkitARM/bin/../lib/gcc/arm-none-eabi/4.9.2/../../../../arm-none-eabi/lib/thumb/libg.a(lib_a-gmtime_r.o)
 .text          0x0000000002014fdc        0x0 /home/ulises/devkitPro/devkitARM/bin/../lib/gcc/arm-none-eabi/4.9.2/../../../../arm-none-eabi/lib/thumb/libg.a(lib_a-iswspace.o)
 .text          0x0000000002014fdc        0x0 /home/ulises/devkitPro/devkitARM/bin/../lib/gcc/arm-none-eabi/4.9.2/../../../../arm-none-eabi/lib/thumb/libg.a(lib_a-jp2uc.o)
 .text          0x0000000002014fdc        0x0 /home/ulises/devkitPro/devkitARM/bin/../lib/gcc/arm-none-eabi/4.9.2/../../../../arm-none-eabi/lib/thumb/libg.a(lib_a-mbsnrtowcs.o)
 .text          0x0000000002014fdc        0x0 /home/ulises/devkitPro/devkitARM/bin/../lib/gcc/arm-none-eabi/4.9.2/../../../../arm-none-eabi/lib/thumb/libg.a(lib_a-memchr.o)
 .text          0x0000000002014fdc        0x0 /home/ulises/devkitPro/devkitARM/bin/../lib/gcc/arm-none-eabi/4.9.2/../../../../arm-none-eabi/lib/thumb/libg.a(lib_a-mprec.o)
 .text          0x0000000002014fdc        0x0 /home/ulises/devkitPro/devkitARM/bin/../lib/gcc/arm-none-eabi/4.9.2/../../../../arm-none-eabi/lib/thumb/libg.a(lib_a-sccl.o)
 .text          0x0000000002014fdc        0x0 /home/ulises/devkitPro/devkitARM/bin/../lib/gcc/arm-none-eabi/4.9.2/../../../../arm-none-eabi/lib/thumb/libg.a(lib_a-s_fpclassify.o)
 .text          0x0000000002014fdc        0x0 /home/ulises/devkitPro/devkitARM/bin/../lib/gcc/arm-none-eabi/4.9.2/../../../../arm-none-eabi/lib/thumb/libg.a(lib_a-s_frexp.o)
 .text          0x0000000002014fdc        0x0 /home/ulises/devkitPro/devkitARM/bin/../lib/gcc/arm-none-eabi/4.9.2/../../../../arm-none-eabi/lib/thumb/libg.a(lib_a-strtoll_r.o)
 .text          0x0000000002014fdc        0x0 /home/ulises/devkitPro/devkitARM/bin/../lib/gcc/arm-none-eabi/4.9.2/../../../../arm-none-eabi/lib/thumb/libg.a(lib_a-strtoull_r.o)
 .text          0x0000000002014fdc        0x0 /home/ulises/devkitPro/devkitARM/bin/../lib/gcc/arm-none-eabi/4.9.2/../../../../arm-none-eabi/lib/thumb/libg.a(lib_a-strtoul.o)
 .text          0x0000000002014fdc        0x0 /home/ulises/devkitPro/devkitARM/bin/../lib/gcc/arm-none-eabi/4.9.2/../../../../arm-none-eabi/lib/thumb/libg.a(lib_a-svfiprintf.o)
 .text          0x0000000002014fdc        0x0 /home/ulises/devkitPro/devkitARM/bin/../lib/gcc/arm-none-eabi/4.9.2/../../../../arm-none-eabi/lib/thumb/libg.a(lib_a-wbuf.o)
 .text          0x0000000002014fdc        0x0 /home/ulises/devkitPro/devkitARM/bin/../lib/gcc/arm-none-eabi/4.9.2/../../../../arm-none-eabi/lib/thumb/libg.a(lib_a-wcsnrtombs.o)
 .text          0x0000000002014fdc        0x0 /home/ulises/devkitPro/devkitARM/bin/../lib/gcc/arm-none-eabi/4.9.2/../../../../arm-none-eabi/lib/thumb/libg.a(lib_a-environ.o)
 .text          0x0000000002014fdc        0x0 /home/ulises/devkitPro/devkitARM/bin/../lib/gcc/arm-none-eabi/4.9.2/../../../../arm-none-eabi/lib/thumb/libg.a(lib_a-envlock.o)
 .text          0x0000000002014fdc      0x140 /home/ulises/devkitPro/devkitARM/bin/../lib/gcc/arm-none-eabi/4.9.2/../../../../arm-none-eabi/lib/thumb/libsysbase.a(iosupport.o)
                0x0000000002014fdc                setDefaultDevice
                0x0000000002014fec                FindDevice
                0x000000000201505c                RemoveDevice
                0x0000000002015080                AddDevice
                0x00000000020150fc                GetDeviceOpTab
 .text          0x000000000201511c       0x54 /home/ulises/devkitPro/devkitARM/bin/../lib/gcc/arm-none-eabi/4.9.2/../../../../arm-none-eabi/lib/thumb/libsysbase.a(close.o)
                0x000000000201511c                _close_r
 .text          0x0000000002015170       0x44 /home/ulises/devkitPro/devkitARM/bin/../lib/gcc/arm-none-eabi/4.9.2/../../../../arm-none-eabi/lib/thumb/libsysbase.a(fstat.o)
                0x0000000002015170                _fstat_r
 .text          0x00000000020151b4       0x28 /home/ulises/devkitPro/devkitARM/bin/../lib/gcc/arm-none-eabi/4.9.2/../../../../arm-none-eabi/lib/thumb/libsysbase.a(gettod.o)
                0x00000000020151b4                _gettimeofday_r
 .text          0x00000000020151dc        0x4 /home/ulises/devkitPro/devkitARM/bin/../lib/gcc/arm-none-eabi/4.9.2/../../../../arm-none-eabi/lib/thumb/libsysbase.a(isatty.o)
                0x00000000020151dc                _isatty_r
 .text          0x00000000020151e0       0x48 /home/ulises/devkitPro/devkitARM/bin/../lib/gcc/arm-none-eabi/4.9.2/../../../../arm-none-eabi/lib/thumb/libsysbase.a(lseek.o)
                0x00000000020151e0                _lseek_r
 .text          0x0000000002015228       0xa0 /home/ulises/devkitPro/devkitARM/bin/../lib/gcc/arm-none-eabi/4.9.2/../../../../arm-none-eabi/lib/thumb/libsysbase.a(open.o)
                0x0000000002015228                _open_r
 .text          0x00000000020152c8       0x48 /home/ulises/devkitPro/devkitARM/bin/../lib/gcc/arm-none-eabi/4.9.2/../../../../arm-none-eabi/lib/thumb/libsysbase.a(read.o)
                0x00000000020152c8                _read_r
 .text          0x0000000002015310       0x54 /home/ulises/devkitPro/devkitARM/bin/../lib/gcc/arm-none-eabi/4.9.2/../../../../arm-none-eabi/lib/thumb/libsysbase.a(sbrk.o)
                0x0000000002015310                _sbrk_r
 .text          0x0000000002015364       0x48 /home/ulises/devkitPro/devkitARM/bin/../lib/gcc/arm-none-eabi/4.9.2/../../../../arm-none-eabi/lib/thumb/libsysbase.a(write.o)
                0x0000000002015364                _write_r
 .text          0x00000000020153ac        0x0 /home/ulises/devkitPro/devkitARM/bin/../lib/gcc/arm-none-eabi/4.9.2/../../../../arm-none-eabi/lib/thumb/libsysbase.a(malloc_vars.o)
 .text          0x00000000020153ac      0x280 /home/ulises/devkitPro/devkitARM/bin/../lib/gcc/arm-none-eabi/4.9.2/../../../../arm-none-eabi/lib/thumb/libsysbase.a(chdir.o)
                0x00000000020153ac                _concatenate_path
                0x00000000020154e8                chdir
                0x00000000020155c8                getcwd
 .text          0x000000000201562c       0x50 /home/ulises/devkitPro/devkitARM/bin/../lib/gcc/arm-none-eabi/4.9.2/../../../../arm-none-eabi/lib/thumb/libsysbase.a(build_argv.o)
                0x000000000201562c                build_argv
 .text          0x000000000201567c        0x8 /home/ulises/devkitPro/devkitARM/bin/../lib/gcc/arm-none-eabi/4.9.2/../../../../arm-none-eabi/lib/thumb/libsysbase.a(flock.o)
                0x000000000201567c                __flockfile
                0x0000000002015680                __funlockfile
 .text          0x0000000002015684      0x104 /home/ulises/devkitPro/devkitARM/bin/../lib/gcc/arm-none-eabi/4.9.2/../../../../arm-none-eabi/lib/thumb/libsysbase.a(syscall_support.o)
                0x0000000002015684                __libc_lock_init
                0x000000000201569c                __libc_lock_acquire
                0x00000000020156b4                __libc_lock_try_acquire
                0x00000000020156d4                __libc_lock_release
                0x00000000020156ec                __libc_lock_close
                0x0000000002015704                __libc_lock_init_recursive
                0x000000000201571c                __libc_lock_acquire_recursive
                0x0000000002015734                __libc_lock_try_acquire_recursive
                0x0000000002015754                __libc_lock_release_recursive
                0x000000000201576c                __libc_lock_close_recursive
 .text          0x0000000002015788      0x1a4 /home/ulises/devkitPro/devkitARM/bin/../lib/gcc/arm-none-eabi/4.9.2/../../../../arm-none-eabi/lib/thumb/libsysbase.a(handle_manager.o)
                0x0000000002015788                __free_handle
                0x00000000020157bc                __release_handle
                0x00000000020157e4                __alloc_handle
                0x0000000002015828                __get_handle
                0x0000000002015844                dup
                0x000000000201589c                dup2
 .text          0x000000000201592c       0x28 /home/ulises/devkitPro/devkitARM/bin/../lib/gcc/arm-none-eabi/4.9.2/../../../../arm-none-eabi/lib/thumb/libsysbase.a(getreent.o)
                0x000000000201592c                __getreent
 .text          0x0000000002015954      0x41c /home/ulises/devkitPro/devkitARM/bin/../lib/gcc/arm-none-eabi/4.9.2/thumb/libgcc.a(_arm_addsubdf3.o)
                0x0000000002015954                __aeabi_drsub
                0x000000000201595c                __aeabi_dsub
                0x000000000201595c                __subdf3
                0x0000000002015960                __adddf3
                0x0000000002015960                __aeabi_dadd
                0x0000000002015c70                __aeabi_ui2d
                0x0000000002015c70                __floatunsidf
                0x0000000002015c94                __floatsidf
                0x0000000002015c94                __aeabi_i2d
                0x0000000002015cbc                __extendsfdf2
                0x0000000002015cbc                __aeabi_f2d
                0x0000000002015cfc                __aeabi_ul2d
                0x0000000002015cfc                __floatundidf
                0x0000000002015d10                __floatdidf
                0x0000000002015d10                __aeabi_l2d
 .text          0x0000000002015d70      0x49c /home/ulises/devkitPro/devkitARM/bin/../lib/gcc/arm-none-eabi/4.9.2/thumb/libgcc.a(_arm_muldivdf3.o)
                0x0000000002015d70                __aeabi_dmul
                0x0000000002015d70                __muldf3
                0x0000000002016000                __aeabi_ddiv
                0x0000000002016000                __divdf3
 .text          0x000000000201620c      0x144 /home/ulises/devkitPro/devkitARM/bin/../lib/gcc/arm-none-eabi/4.9.2/thumb/libgcc.a(_arm_cmpdf2.o)
                0x000000000201620c                __gtdf2
                0x000000000201620c                __gedf2
                0x0000000002016214                __ltdf2
                0x0000000002016214                __ledf2
                0x000000000201621c                __cmpdf2
                0x000000000201621c                __eqdf2
                0x000000000201621c                __nedf2
                0x00000000020162a4                __aeabi_cdrcmple
                0x00000000020162c0                __aeabi_cdcmple
                0x00000000020162c0                __aeabi_cdcmpeq
                0x00000000020162d8                __aeabi_dcmpeq
                0x00000000020162f0                __aeabi_dcmplt
                0x0000000002016308                __aeabi_dcmple
                0x0000000002016320                __aeabi_dcmpge
                0x0000000002016338                __aeabi_dcmpgt
 .text          0x0000000002016350       0x5c /home/ulises/devkitPro/devkitARM/bin/../lib/gcc/arm-none-eabi/4.9.2/thumb/libgcc.a(_arm_fixdfsi.o)
                0x0000000002016350                __fixdfsi
                0x0000000002016350                __aeabi_d2iz
 .text          0x00000000020163ac       0x3c /home/ulises/devkitPro/devkitARM/bin/../lib/gcc/arm-none-eabi/4.9.2/thumb/libgcc.a(_aeabi_uldivmod.o)
                0x00000000020163ac                __aeabi_uldivmod
 .text          0x00000000020163e8       0x74 /home/ulises/devkitPro/devkitARM/bin/../lib/gcc/arm-none-eabi/4.9.2/thumb/libgcc.a(bpabi.o)
                0x00000000020163e8                __gnu_ldivmod_helper
                0x0000000002016424                __gnu_uldivmod_helper
 .text          0x000000000201645c      0x1f4 /home/ulises/devkitPro/devkitARM/bin/../lib/gcc/arm-none-eabi/4.9.2/thumb/libgcc.a(_divdi3.o)
                0x000000000201645c                __divdi3
 .text          0x0000000002016650      0x15c /home/ulises/devkitPro/devkitARM/bin/../lib/gcc/arm-none-eabi/4.9.2/thumb/libgcc.a(_udivdi3.o)
                0x0000000002016650                __udivdi3
 .text          0x00000000020167ac       0x28 /home/ulises/devkitPro/devkitARM/bin/../lib/gcc/arm-none-eabi/4.9.2/thumb/libgcc.a(_clzdi2.o)
                0x00000000020167ac                __clzdi2
 .text          0x00000000020167d4       0x48 /home/ulises/devkitPro/devkitARM/bin/../lib/gcc/arm-none-eabi/4.9.2/thumb/libgcc.a(_clzsi2.o)
                0x00000000020167d4                __clzsi2
 .text          0x000000000201681c        0x0 /home/ulises/devkitPro/devkitARM/bin/../lib/gcc/arm-none-eabi/4.9.2/../../../../arm-none-eabi/lib/thumb/libg.a(lib_a-errno.o)
 .text          0x000000000201681c        0x0 /home/ulises/devkitPro/devkitARM/bin/../lib/gcc/arm-none-eabi/4.9.2/thumb/crtend.o
 .text          0x000000000201681c        0x0 /home/ulises/devkitPro/devkitARM/bin/../lib/gcc/arm-none-eabi/4.9.2/thumb/crtn.o
 *(.text.*)
 .text.startup  0x000000000201681c     0x1f84 main.o
                0x000000000201681c                main
 .text.bsearch  0x00000000020187a0       0x64 /home/ulises/devkitPro/devkitARM/bin/../lib/gcc/arm-none-eabi/4.9.2/../../../../arm-none-eabi/lib/thumb/libg.a(lib_a-bsearch.o)
                0x00000000020187a0                bsearch
 .text.calloc   0x0000000002018804       0x18 /home/ulises/devkitPro/devkitARM/bin/../lib/gcc/arm-none-eabi/4.9.2/../../../../arm-none-eabi/lib/thumb/libg.a(lib_a-calloc.o)
                0x0000000002018804                calloc
 .text._calloc_r
                0x000000000201881c       0x64 /home/ulises/devkitPro/devkitARM/bin/../lib/gcc/arm-none-eabi/4.9.2/../../../../arm-none-eabi/lib/thumb/libg.a(lib_a-callocr.o)
                0x000000000201881c                _calloc_r
 .text.__set_ctype
                0x0000000002018880       0x10 /home/ulises/devkitPro/devkitARM/bin/../lib/gcc/arm-none-eabi/4.9.2/../../../../arm-none-eabi/lib/thumb/libg.a(lib_a-ctype_.o)
                0x0000000002018880                __set_ctype
 .text._fclose_r
                0x0000000002018890       0xac /home/ulises/devkitPro/devkitARM/bin/../lib/gcc/arm-none-eabi/4.9.2/../../../../arm-none-eabi/lib/thumb/libg.a(lib_a-fclose.o)
                0x0000000002018890                _fclose_r
 .text.fclose   0x000000000201893c       0x14 /home/ulises/devkitPro/devkitARM/bin/../lib/gcc/arm-none-eabi/4.9.2/../../../../arm-none-eabi/lib/thumb/libg.a(lib_a-fclose.o)
                0x000000000201893c                fclose
 .text.__sflush_r
                0x0000000002018950      0x168 /home/ulises/devkitPro/devkitARM/bin/../lib/gcc/arm-none-eabi/4.9.2/../../../../arm-none-eabi/lib/thumb/libg.a(lib_a-fflush.o)
                0x0000000002018950                __sflush_r
 .text._fflush_r
                0x0000000002018ab8       0x58 /home/ulises/devkitPro/devkitARM/bin/../lib/gcc/arm-none-eabi/4.9.2/../../../../arm-none-eabi/lib/thumb/libg.a(lib_a-fflush.o)
                0x0000000002018ab8                _fflush_r
 .text.fflush   0x0000000002018b10       0x2c /home/ulises/devkitPro/devkitARM/bin/../lib/gcc/arm-none-eabi/4.9.2/../../../../arm-none-eabi/lib/thumb/libg.a(lib_a-fflush.o)
                0x0000000002018b10                fflush
 .text._cleanup_r
                0x0000000002018b3c       0x14 /home/ulises/devkitPro/devkitARM/bin/../lib/gcc/arm-none-eabi/4.9.2/../../../../arm-none-eabi/lib/thumb/libg.a(lib_a-findfp.o)
                0x0000000002018b3c                _cleanup_r
 .text.__fp_lock
                0x0000000002018b50       0x14 /home/ulises/devkitPro/devkitARM/bin/../lib/gcc/arm-none-eabi/4.9.2/../../../../arm-none-eabi/lib/thumb/libg.a(lib_a-findfp.o)
 .text.__fp_unlock
                0x0000000002018b64       0x14 /home/ulises/devkitPro/devkitARM/bin/../lib/gcc/arm-none-eabi/4.9.2/../../../../arm-none-eabi/lib/thumb/libg.a(lib_a-findfp.o)
 .text.__sinit.part.1
                0x0000000002018b78       0xfc /home/ulises/devkitPro/devkitARM/bin/../lib/gcc/arm-none-eabi/4.9.2/../../../../arm-none-eabi/lib/thumb/libg.a(lib_a-findfp.o)
 .text.__sfmoreglue
                0x0000000002018c74       0x34 /home/ulises/devkitPro/devkitARM/bin/../lib/gcc/arm-none-eabi/4.9.2/../../../../arm-none-eabi/lib/thumb/libg.a(lib_a-findfp.o)
                0x0000000002018c74                __sfmoreglue
 .text.__sfp    0x0000000002018ca8       0x94 /home/ulises/devkitPro/devkitARM/bin/../lib/gcc/arm-none-eabi/4.9.2/../../../../arm-none-eabi/lib/thumb/libg.a(lib_a-findfp.o)
                0x0000000002018ca8                __sfp
 .text._cleanup
                0x0000000002018d3c       0x1c /home/ulises/devkitPro/devkitARM/bin/../lib/gcc/arm-none-eabi/4.9.2/../../../../arm-none-eabi/lib/thumb/libg.a(lib_a-findfp.o)
                0x0000000002018d3c                _cleanup
 .text.__sinit  0x0000000002018d58       0x14 /home/ulises/devkitPro/devkitARM/bin/../lib/gcc/arm-none-eabi/4.9.2/../../../../arm-none-eabi/lib/thumb/libg.a(lib_a-findfp.o)
                0x0000000002018d58                __sinit
 .text.__sfp_lock_acquire
                0x0000000002018d6c        0x4 /home/ulises/devkitPro/devkitARM/bin/../lib/gcc/arm-none-eabi/4.9.2/../../../../arm-none-eabi/lib/thumb/libg.a(lib_a-findfp.o)
                0x0000000002018d6c                __sfp_lock_acquire
 .text.__sfp_lock_release
                0x0000000002018d70        0x4 /home/ulises/devkitPro/devkitARM/bin/../lib/gcc/arm-none-eabi/4.9.2/../../../../arm-none-eabi/lib/thumb/libg.a(lib_a-findfp.o)
                0x0000000002018d70                __sfp_lock_release
 .text.__sinit_lock_acquire
                0x0000000002018d74        0x4 /home/ulises/devkitPro/devkitARM/bin/../lib/gcc/arm-none-eabi/4.9.2/../../../../arm-none-eabi/lib/thumb/libg.a(lib_a-findfp.o)
                0x0000000002018d74                __sinit_lock_acquire
 .text.__sinit_lock_release
                0x0000000002018d78        0x4 /home/ulises/devkitPro/devkitARM/bin/../lib/gcc/arm-none-eabi/4.9.2/../../../../arm-none-eabi/lib/thumb/libg.a(lib_a-findfp.o)
                0x0000000002018d78                __sinit_lock_release
 .text.__fp_lock_all
                0x0000000002018d7c       0x18 /home/ulises/devkitPro/devkitARM/bin/../lib/gcc/arm-none-eabi/4.9.2/../../../../arm-none-eabi/lib/thumb/libg.a(lib_a-findfp.o)
                0x0000000002018d7c                __fp_lock_all
 .text.__fp_unlock_all
                0x0000000002018d94       0x18 /home/ulises/devkitPro/devkitARM/bin/../lib/gcc/arm-none-eabi/4.9.2/../../../../arm-none-eabi/lib/thumb/libg.a(lib_a-findfp.o)
                0x0000000002018d94                __fp_unlock_all
 .text._fopen_r
                0x0000000002018dac       0xac /home/ulises/devkitPro/devkitARM/bin/../lib/gcc/arm-none-eabi/4.9.2/../../../../arm-none-eabi/lib/thumb/libg.a(lib_a-fopen.o)
                0x0000000002018dac                _fopen_r
 .text.fopen    0x0000000002018e58       0x18 /home/ulises/devkitPro/devkitARM/bin/../lib/gcc/arm-none-eabi/4.9.2/../../../../arm-none-eabi/lib/thumb/libg.a(lib_a-fopen.o)
                0x0000000002018e58                fopen
 .text._fread_r
                0x0000000002018e70      0x1d0 /home/ulises/devkitPro/devkitARM/bin/../lib/gcc/arm-none-eabi/4.9.2/../../../../arm-none-eabi/lib/thumb/libg.a(lib_a-fread.o)
                0x0000000002018e70                _fread_r
 .text.fread    0x0000000002019040       0x24 /home/ulises/devkitPro/devkitARM/bin/../lib/gcc/arm-none-eabi/4.9.2/../../../../arm-none-eabi/lib/thumb/libg.a(lib_a-fread.o)
                0x0000000002019040                fread
 .text._malloc_trim_r
                0x0000000002019064       0xa4 /home/ulises/devkitPro/devkitARM/bin/../lib/gcc/arm-none-eabi/4.9.2/../../../../arm-none-eabi/lib/thumb/libg.a(lib_a-freer.o)
                0x0000000002019064                _malloc_trim_r
 .text._free_r  0x0000000002019108      0x1b0 /home/ulises/devkitPro/devkitARM/bin/../lib/gcc/arm-none-eabi/4.9.2/../../../../arm-none-eabi/lib/thumb/libg.a(lib_a-freer.o)
                0x0000000002019108                _free_r
 .text._fseek_r
                0x00000000020192b8        0xc /home/ulises/devkitPro/devkitARM/bin/../lib/gcc/arm-none-eabi/4.9.2/../../../../arm-none-eabi/lib/thumb/libg.a(lib_a-fseek.o)
                0x00000000020192b8                _fseek_r
 .text.fseek    0x00000000020192c4       0x1c /home/ulises/devkitPro/devkitARM/bin/../lib/gcc/arm-none-eabi/4.9.2/../../../../arm-none-eabi/lib/thumb/libg.a(lib_a-fseek.o)
                0x00000000020192c4                fseek
 .text._fseeko_r
                0x00000000020192e0      0x348 /home/ulises/devkitPro/devkitARM/bin/../lib/gcc/arm-none-eabi/4.9.2/../../../../arm-none-eabi/lib/thumb/libg.a(lib_a-fseeko.o)
                0x00000000020192e0                _fseeko_r
 .text.fseeko   0x0000000002019628       0x1c /home/ulises/devkitPro/devkitARM/bin/../lib/gcc/arm-none-eabi/4.9.2/../../../../arm-none-eabi/lib/thumb/libg.a(lib_a-fseeko.o)
                0x0000000002019628                fseeko
 .text._ftell_r
                0x0000000002019644        0xc /home/ulises/devkitPro/devkitARM/bin/../lib/gcc/arm-none-eabi/4.9.2/../../../../arm-none-eabi/lib/thumb/libg.a(lib_a-ftell.o)
                0x0000000002019644                _ftell_r
 .text.ftell    0x0000000002019650       0x14 /home/ulises/devkitPro/devkitARM/bin/../lib/gcc/arm-none-eabi/4.9.2/../../../../arm-none-eabi/lib/thumb/libg.a(lib_a-ftell.o)
                0x0000000002019650                ftell
 .text._ftello_r
                0x0000000002019664       0xcc /home/ulises/devkitPro/devkitARM/bin/../lib/gcc/arm-none-eabi/4.9.2/../../../../arm-none-eabi/lib/thumb/libg.a(lib_a-ftello.o)
                0x0000000002019664                _ftello_r
 .text.ftello   0x0000000002019730       0x14 /home/ulises/devkitPro/devkitARM/bin/../lib/gcc/arm-none-eabi/4.9.2/../../../../arm-none-eabi/lib/thumb/libg.a(lib_a-ftello.o)
                0x0000000002019730                ftello
 .text._fwalk   0x0000000002019744       0x50 /home/ulises/devkitPro/devkitARM/bin/../lib/gcc/arm-none-eabi/4.9.2/../../../../arm-none-eabi/lib/thumb/libg.a(lib_a-fwalk.o)
                0x0000000002019744                _fwalk
 .text._fwalk_reent
                0x0000000002019794       0x58 /home/ulises/devkitPro/devkitARM/bin/../lib/gcc/arm-none-eabi/4.9.2/../../../../arm-none-eabi/lib/thumb/libg.a(lib_a-fwalk.o)
                0x0000000002019794                _fwalk_reent
 .text.__libc_init_array
                0x00000000020197ec       0x58 /home/ulises/devkitPro/devkitARM/bin/../lib/gcc/arm-none-eabi/4.9.2/../../../../arm-none-eabi/lib/thumb/libg.a(lib_a-init.o)
                0x00000000020197ec                __libc_init_array
 .text.iprintf  0x0000000002019844       0x24 /home/ulises/devkitPro/devkitARM/bin/../lib/gcc/arm-none-eabi/4.9.2/../../../../arm-none-eabi/lib/thumb/libg.a(lib_a-iprintf.o)
                0x0000000002019844                iprintf
 .text._iprintf_r
                0x0000000002019868       0x1c /home/ulises/devkitPro/devkitARM/bin/../lib/gcc/arm-none-eabi/4.9.2/../../../../arm-none-eabi/lib/thumb/libg.a(lib_a-iprintf.o)
                0x0000000002019868                _iprintf_r
 .text.localtime_r
                0x0000000002019884      0x210 /home/ulises/devkitPro/devkitARM/bin/../lib/gcc/arm-none-eabi/4.9.2/../../../../arm-none-eabi/lib/thumb/libg.a(lib_a-lcltime_r.o)
                0x0000000002019884                localtime_r
 .text.__get_locale_env
                0x0000000002019a94       0x58 /home/ulises/devkitPro/devkitARM/bin/../lib/gcc/arm-none-eabi/4.9.2/../../../../arm-none-eabi/lib/thumb/libg.a(lib_a-locale.o)
 .text.loadlocale
                0x0000000002019aec      0x620 /home/ulises/devkitPro/devkitARM/bin/../lib/gcc/arm-none-eabi/4.9.2/../../../../arm-none-eabi/lib/thumb/libg.a(lib_a-locale.o)
 .text.currentlocale
                0x000000000201a10c       0x64 /home/ulises/devkitPro/devkitARM/bin/../lib/gcc/arm-none-eabi/4.9.2/../../../../arm-none-eabi/lib/thumb/libg.a(lib_a-locale.o)
 .text._setlocale_r
                0x000000000201a170      0x210 /home/ulises/devkitPro/devkitARM/bin/../lib/gcc/arm-none-eabi/4.9.2/../../../../arm-none-eabi/lib/thumb/libg.a(lib_a-locale.o)
                0x000000000201a170                _setlocale_r
 .text.__locale_charset
                0x000000000201a380        0x8 /home/ulises/devkitPro/devkitARM/bin/../lib/gcc/arm-none-eabi/4.9.2/../../../../arm-none-eabi/lib/thumb/libg.a(lib_a-locale.o)
                0x000000000201a380                __locale_charset
 .text.__locale_mb_cur_max
                0x000000000201a388        0xc /home/ulises/devkitPro/devkitARM/bin/../lib/gcc/arm-none-eabi/4.9.2/../../../../arm-none-eabi/lib/thumb/libg.a(lib_a-locale.o)
                0x000000000201a388                __locale_mb_cur_max
 .text.__locale_msgcharset
                0x000000000201a394        0x8 /home/ulises/devkitPro/devkitARM/bin/../lib/gcc/arm-none-eabi/4.9.2/../../../../arm-none-eabi/lib/thumb/libg.a(lib_a-locale.o)
                0x000000000201a394                __locale_msgcharset
 .text.__locale_cjk_lang
                0x000000000201a39c        0xc /home/ulises/devkitPro/devkitARM/bin/../lib/gcc/arm-none-eabi/4.9.2/../../../../arm-none-eabi/lib/thumb/libg.a(lib_a-locale.o)
                0x000000000201a39c                __locale_cjk_lang
 .text._localeconv_r
                0x000000000201a3a8        0x8 /home/ulises/devkitPro/devkitARM/bin/../lib/gcc/arm-none-eabi/4.9.2/../../../../arm-none-eabi/lib/thumb/libg.a(lib_a-locale.o)
                0x000000000201a3a8                _localeconv_r
 .text.setlocale
                0x000000000201a3b0       0x18 /home/ulises/devkitPro/devkitARM/bin/../lib/gcc/arm-none-eabi/4.9.2/../../../../arm-none-eabi/lib/thumb/libg.a(lib_a-locale.o)
                0x000000000201a3b0                setlocale
 .text.localeconv
                0x000000000201a3c8       0x14 /home/ulises/devkitPro/devkitARM/bin/../lib/gcc/arm-none-eabi/4.9.2/../../../../arm-none-eabi/lib/thumb/libg.a(lib_a-locale.o)
                0x000000000201a3c8                localeconv
 .text.__smakebuf_r
                0x000000000201a3dc      0x100 /home/ulises/devkitPro/devkitARM/bin/../lib/gcc/arm-none-eabi/4.9.2/../../../../arm-none-eabi/lib/thumb/libg.a(lib_a-makebuf.o)
                0x000000000201a3dc                __smakebuf_r
 .text.malloc   0x000000000201a4dc       0x14 /home/ulises/devkitPro/devkitARM/bin/../lib/gcc/arm-none-eabi/4.9.2/../../../../arm-none-eabi/lib/thumb/libg.a(lib_a-malloc.o)
                0x000000000201a4dc                malloc
 .text.free     0x000000000201a4f0       0x14 /home/ulises/devkitPro/devkitARM/bin/../lib/gcc/arm-none-eabi/4.9.2/../../../../arm-none-eabi/lib/thumb/libg.a(lib_a-malloc.o)
                0x000000000201a4f0                free
 .text._malloc_r
                0x000000000201a504      0x54c /home/ulises/devkitPro/devkitARM/bin/../lib/gcc/arm-none-eabi/4.9.2/../../../../arm-none-eabi/lib/thumb/libg.a(lib_a-mallocr.o)
                0x000000000201a504                _malloc_r
 .text._mbrtowc_r
                0x000000000201aa50       0x7c /home/ulises/devkitPro/devkitARM/bin/../lib/gcc/arm-none-eabi/4.9.2/../../../../arm-none-eabi/lib/thumb/libg.a(lib_a-mbrtowc.o)
                0x000000000201aa50                _mbrtowc_r
 .text.mbrtowc  0x000000000201aacc       0x80 /home/ulises/devkitPro/devkitARM/bin/../lib/gcc/arm-none-eabi/4.9.2/../../../../arm-none-eabi/lib/thumb/libg.a(lib_a-mbrtowc.o)
                0x000000000201aacc                mbrtowc
 .text._mbsrtowcs_r
                0x000000000201ab4c       0x18 /home/ulises/devkitPro/devkitARM/bin/../lib/gcc/arm-none-eabi/4.9.2/../../../../arm-none-eabi/lib/thumb/libg.a(lib_a-mbsrtowcs.o)
                0x000000000201ab4c                _mbsrtowcs_r
 .text.mbsrtowcs
                0x000000000201ab64       0x28 /home/ulises/devkitPro/devkitARM/bin/../lib/gcc/arm-none-eabi/4.9.2/../../../../arm-none-eabi/lib/thumb/libg.a(lib_a-mbsrtowcs.o)
                0x000000000201ab64                mbsrtowcs
 .text.__utf8_mbtowc
                0x000000000201ab8c      0x2bc /home/ulises/devkitPro/devkitARM/bin/../lib/gcc/arm-none-eabi/4.9.2/../../../../arm-none-eabi/lib/thumb/libg.a(lib_a-mbtowc_r.o)
                0x000000000201ab8c                __utf8_mbtowc
 .text._mbtowc_r
                0x000000000201ae48       0x40 /home/ulises/devkitPro/devkitARM/bin/../lib/gcc/arm-none-eabi/4.9.2/../../../../arm-none-eabi/lib/thumb/libg.a(lib_a-mbtowc_r.o)
                0x000000000201ae48                _mbtowc_r
 .text.__ascii_mbtowc
                0x000000000201ae88       0x2c /home/ulises/devkitPro/devkitARM/bin/../lib/gcc/arm-none-eabi/4.9.2/../../../../arm-none-eabi/lib/thumb/libg.a(lib_a-mbtowc_r.o)
                0x000000000201ae88                __ascii_mbtowc
 .text.__sjis_mbtowc
                0x000000000201aeb4       0xb4 /home/ulises/devkitPro/devkitARM/bin/../lib/gcc/arm-none-eabi/4.9.2/../../../../arm-none-eabi/lib/thumb/libg.a(lib_a-mbtowc_r.o)
                0x000000000201aeb4                __sjis_mbtowc
 .text.__eucjp_mbtowc
                0x000000000201af68       0xd0 /home/ulises/devkitPro/devkitARM/bin/../lib/gcc/arm-none-eabi/4.9.2/../../../../arm-none-eabi/lib/thumb/libg.a(lib_a-mbtowc_r.o)
                0x000000000201af68                __eucjp_mbtowc
 .text.__jis_mbtowc
                0x000000000201b038      0x148 /home/ulises/devkitPro/devkitARM/bin/../lib/gcc/arm-none-eabi/4.9.2/../../../../arm-none-eabi/lib/thumb/libg.a(lib_a-mbtowc_r.o)
                0x000000000201b038                __jis_mbtowc
 .text.memcmp   0x000000000201b180       0x54 /home/ulises/devkitPro/devkitARM/bin/../lib/gcc/arm-none-eabi/4.9.2/../../../../arm-none-eabi/lib/thumb/libg.a(lib_a-memcmp.o)
                0x000000000201b180                memcmp
 .text.memcpy   0x000000000201b1d4       0x84 /home/ulises/devkitPro/devkitARM/bin/../lib/gcc/arm-none-eabi/4.9.2/../../../../arm-none-eabi/lib/thumb/libg.a(lib_a-memcpy.o)
                0x000000000201b1d4                memcpy
 .text.memmove  0x000000000201b258       0x9c /home/ulises/devkitPro/devkitARM/bin/../lib/gcc/arm-none-eabi/4.9.2/../../../../arm-none-eabi/lib/thumb/libg.a(lib_a-memmove.o)
                0x000000000201b258                memmove
 .text.memset   0x000000000201b2f4       0x98 /home/ulises/devkitPro/devkitARM/bin/../lib/gcc/arm-none-eabi/4.9.2/../../../../arm-none-eabi/lib/thumb/libg.a(lib_a-memset.o)
                0x000000000201b2f4                memset
 .text.validate_structure
                0x000000000201b38c      0x204 /home/ulises/devkitPro/devkitARM/bin/../lib/gcc/arm-none-eabi/4.9.2/../../../../arm-none-eabi/lib/thumb/libg.a(lib_a-mktime.o)
 .text.mktime   0x000000000201b590      0x374 /home/ulises/devkitPro/devkitARM/bin/../lib/gcc/arm-none-eabi/4.9.2/../../../../arm-none-eabi/lib/thumb/libg.a(lib_a-mktime.o)
                0x000000000201b590                mktime
 .text.__malloc_lock
                0x000000000201b904        0x4 /home/ulises/devkitPro/devkitARM/bin/../lib/gcc/arm-none-eabi/4.9.2/../../../../arm-none-eabi/lib/thumb/libg.a(lib_a-mlock.o)
                0x000000000201b904                __malloc_lock
 .text.__malloc_unlock
                0x000000000201b908        0x4 /home/ulises/devkitPro/devkitARM/bin/../lib/gcc/arm-none-eabi/4.9.2/../../../../arm-none-eabi/lib/thumb/libg.a(lib_a-mlock.o)
                0x000000000201b908                __malloc_unlock
 .text.realloc  0x000000000201b90c       0x18 /home/ulises/devkitPro/devkitARM/bin/../lib/gcc/arm-none-eabi/4.9.2/../../../../arm-none-eabi/lib/thumb/libg.a(lib_a-realloc.o)
                0x000000000201b90c                realloc
 .text._realloc_r
                0x000000000201b924      0x3dc /home/ulises/devkitPro/devkitARM/bin/../lib/gcc/arm-none-eabi/4.9.2/../../../../arm-none-eabi/lib/thumb/libg.a(lib_a-reallocr.o)
                0x000000000201b924                _realloc_r
 .text.lflush   0x000000000201bd00       0x20 /home/ulises/devkitPro/devkitARM/bin/../lib/gcc/arm-none-eabi/4.9.2/../../../../arm-none-eabi/lib/thumb/libg.a(lib_a-refill.o)
 .text.__srefill_r
                0x000000000201bd20      0x12c /home/ulises/devkitPro/devkitARM/bin/../lib/gcc/arm-none-eabi/4.9.2/../../../../arm-none-eabi/lib/thumb/libg.a(lib_a-refill.o)
                0x000000000201bd20                __srefill_r
 .text._rewind_r
                0x000000000201be4c       0x1c /home/ulises/devkitPro/devkitARM/bin/../lib/gcc/arm-none-eabi/4.9.2/../../../../arm-none-eabi/lib/thumb/libg.a(lib_a-rewind.o)
                0x000000000201be4c                _rewind_r
 .text.rewind   0x000000000201be68       0x20 /home/ulises/devkitPro/devkitARM/bin/../lib/gcc/arm-none-eabi/4.9.2/../../../../arm-none-eabi/lib/thumb/libg.a(lib_a-rewind.o)
                0x000000000201be68                rewind
 .text.setvbuf  0x000000000201be88      0x154 /home/ulises/devkitPro/devkitARM/bin/../lib/gcc/arm-none-eabi/4.9.2/../../../../arm-none-eabi/lib/thumb/libg.a(lib_a-setvbuf.o)
                0x000000000201be88                setvbuf
 .text.siscanf  0x000000000201bfdc       0x4c /home/ulises/devkitPro/devkitARM/bin/../lib/gcc/arm-none-eabi/4.9.2/../../../../arm-none-eabi/lib/thumb/libg.a(lib_a-siscanf.o)
                0x000000000201bfdc                siscanf
 .text._siscanf_r
                0x000000000201c028       0x50 /home/ulises/devkitPro/devkitARM/bin/../lib/gcc/arm-none-eabi/4.9.2/../../../../arm-none-eabi/lib/thumb/libg.a(lib_a-siscanf.o)
                0x000000000201c028                _siscanf_r
 .text._sprintf_r
                0x000000000201c078       0x40 /home/ulises/devkitPro/devkitARM/bin/../lib/gcc/arm-none-eabi/4.9.2/../../../../arm-none-eabi/lib/thumb/libg.a(lib_a-sprintf.o)
                0x000000000201c078                _sprintf_r
 .text.sprintf  0x000000000201c0b8       0x48 /home/ulises/devkitPro/devkitARM/bin/../lib/gcc/arm-none-eabi/4.9.2/../../../../arm-none-eabi/lib/thumb/libg.a(lib_a-sprintf.o)
                0x000000000201c0b8                sprintf
 .text.__sread  0x000000000201c100       0x2c /home/ulises/devkitPro/devkitARM/bin/../lib/gcc/arm-none-eabi/4.9.2/../../../../arm-none-eabi/lib/thumb/libg.a(lib_a-stdio.o)
                0x000000000201c100                __sread
 .text.__seofread
                0x000000000201c12c        0x4 /home/ulises/devkitPro/devkitARM/bin/../lib/gcc/arm-none-eabi/4.9.2/../../../../arm-none-eabi/lib/thumb/libg.a(lib_a-stdio.o)
                0x000000000201c12c                __seofread
 .text.__swrite
                0x000000000201c130       0x44 /home/ulises/devkitPro/devkitARM/bin/../lib/gcc/arm-none-eabi/4.9.2/../../../../arm-none-eabi/lib/thumb/libg.a(lib_a-stdio.o)
                0x000000000201c130                __swrite
 .text.__sseek  0x000000000201c174       0x30 /home/ulises/devkitPro/devkitARM/bin/../lib/gcc/arm-none-eabi/4.9.2/../../../../arm-none-eabi/lib/thumb/libg.a(lib_a-stdio.o)
                0x000000000201c174                __sseek
 .text.__sclose
                0x000000000201c1a4       0x10 /home/ulises/devkitPro/devkitARM/bin/../lib/gcc/arm-none-eabi/4.9.2/../../../../arm-none-eabi/lib/thumb/libg.a(lib_a-stdio.o)
                0x000000000201c1a4                __sclose
 .text.stpcpy   0x000000000201c1b4       0x4c /home/ulises/devkitPro/devkitARM/bin/../lib/gcc/arm-none-eabi/4.9.2/../../../../arm-none-eabi/lib/thumb/libg.a(lib_a-stpcpy.o)
                0x000000000201c1b4                stpcpy
 .text.strcasecmp
                0x000000000201c200       0x58 /home/ulises/devkitPro/devkitARM/bin/../lib/gcc/arm-none-eabi/4.9.2/../../../../arm-none-eabi/lib/thumb/libg.a(lib_a-strcasecmp.o)
                0x000000000201c200                strcasecmp
 .text.strcat   0x000000000201c258       0x54 /home/ulises/devkitPro/devkitARM/bin/../lib/gcc/arm-none-eabi/4.9.2/../../../../arm-none-eabi/lib/thumb/libg.a(lib_a-strcat.o)
                0x000000000201c258                strcat
 .text.strchr   0x000000000201c2ac       0xdc /home/ulises/devkitPro/devkitARM/bin/../lib/gcc/arm-none-eabi/4.9.2/../../../../arm-none-eabi/lib/thumb/libg.a(lib_a-strchr.o)
                0x000000000201c2ac                strchr
 .text.strcpy   0x000000000201c388       0x10 /home/ulises/devkitPro/devkitARM/bin/../lib/gcc/arm-none-eabi/4.9.2/../../../../arm-none-eabi/lib/thumb/libg.a(lib_a-strcpy.o)
                0x000000000201c388                strcpy
 .text.strdup   0x000000000201c398       0x14 /home/ulises/devkitPro/devkitARM/bin/../lib/gcc/arm-none-eabi/4.9.2/../../../../arm-none-eabi/lib/thumb/libg.a(lib_a-strdup.o)
                0x000000000201c398                strdup
 .text._strdup_r
                0x000000000201c3ac       0x2c /home/ulises/devkitPro/devkitARM/bin/../lib/gcc/arm-none-eabi/4.9.2/../../../../arm-none-eabi/lib/thumb/libg.a(lib_a-strdup_r.o)
                0x000000000201c3ac                _strdup_r
 .text.strlcpy  0x000000000201c3d8       0x4c /home/ulises/devkitPro/devkitARM/bin/../lib/gcc/arm-none-eabi/4.9.2/../../../../arm-none-eabi/lib/thumb/libg.a(lib_a-strlcpy.o)
                0x000000000201c3d8                strlcpy
 .text.strlen   0x000000000201c424       0x6c /home/ulises/devkitPro/devkitARM/bin/../lib/gcc/arm-none-eabi/4.9.2/../../../../arm-none-eabi/lib/thumb/libg.a(lib_a-strlen.o)
                0x000000000201c424                strlen
 .text.strncasecmp
                0x000000000201c490       0x5c /home/ulises/devkitPro/devkitARM/bin/../lib/gcc/arm-none-eabi/4.9.2/../../../../arm-none-eabi/lib/thumb/libg.a(lib_a-strncasecmp.o)
                0x000000000201c490                strncasecmp
 .text.strncmp  0x000000000201c4ec       0x98 /home/ulises/devkitPro/devkitARM/bin/../lib/gcc/arm-none-eabi/4.9.2/../../../../arm-none-eabi/lib/thumb/libg.a(lib_a-strncmp.o)
                0x000000000201c4ec                strncmp
 .text.strncpy  0x000000000201c584       0x7c /home/ulises/devkitPro/devkitARM/bin/../lib/gcc/arm-none-eabi/4.9.2/../../../../arm-none-eabi/lib/thumb/libg.a(lib_a-strncpy.o)
                0x000000000201c584                strncpy
 .text.strnlen  0x000000000201c600       0x34 /home/ulises/devkitPro/devkitARM/bin/../lib/gcc/arm-none-eabi/4.9.2/../../../../arm-none-eabi/lib/thumb/libg.a(lib_a-strnlen.o)
                0x000000000201c600                strnlen
 .text.strpbrk  0x000000000201c634       0x50 /home/ulises/devkitPro/devkitARM/bin/../lib/gcc/arm-none-eabi/4.9.2/../../../../arm-none-eabi/lib/thumb/libg.a(lib_a-strpbrk.o)
                0x000000000201c634                strpbrk
 .text.strrchr  0x000000000201c684       0x2c /home/ulises/devkitPro/devkitARM/bin/../lib/gcc/arm-none-eabi/4.9.2/../../../../arm-none-eabi/lib/thumb/libg.a(lib_a-strrchr.o)
                0x000000000201c684                strrchr
 .text._strtol_r
                0x000000000201c6b0      0x15c /home/ulises/devkitPro/devkitARM/bin/../lib/gcc/arm-none-eabi/4.9.2/../../../../arm-none-eabi/lib/thumb/libg.a(lib_a-strtol.o)
                0x000000000201c6b0                _strtol_r
 .text.strtol   0x000000000201c80c       0x1c /home/ulises/devkitPro/devkitARM/bin/../lib/gcc/arm-none-eabi/4.9.2/../../../../arm-none-eabi/lib/thumb/libg.a(lib_a-strtol.o)
                0x000000000201c80c                strtol
 .text._sungetc_r
                0x000000000201c828       0x88 /home/ulises/devkitPro/devkitARM/bin/../lib/gcc/arm-none-eabi/4.9.2/../../../../arm-none-eabi/lib/thumb/libg.a(lib_a-svfiscanf.o)
                0x000000000201c828                _sungetc_r
 .text.__ssrefill_r
                0x000000000201c8b0       0x44 /home/ulises/devkitPro/devkitARM/bin/../lib/gcc/arm-none-eabi/4.9.2/../../../../arm-none-eabi/lib/thumb/libg.a(lib_a-svfiscanf.o)
                0x000000000201c8b0                __ssrefill_r
 .text._sfread_r
                0x000000000201c8f4       0x8c /home/ulises/devkitPro/devkitARM/bin/../lib/gcc/arm-none-eabi/4.9.2/../../../../arm-none-eabi/lib/thumb/libg.a(lib_a-svfiscanf.o)
                0x000000000201c8f4                _sfread_r
 .text.__ssvfiscanf_r
                0x000000000201c980     0x14b0 /home/ulises/devkitPro/devkitARM/bin/../lib/gcc/arm-none-eabi/4.9.2/../../../../arm-none-eabi/lib/thumb/libg.a(lib_a-svfiscanf.o)
                0x000000000201c980                __ssvfiscanf_r
 .text.get_arg  0x000000000201de30      0x4a8 /home/ulises/devkitPro/devkitARM/bin/../lib/gcc/arm-none-eabi/4.9.2/../../../../arm-none-eabi/lib/thumb/libg.a(lib_a-svfprintf.o)
 .text._svfprintf_r
                0x000000000201e2d8     0x2e50 /home/ulises/devkitPro/devkitARM/bin/../lib/gcc/arm-none-eabi/4.9.2/../../../../arm-none-eabi/lib/thumb/libg.a(lib_a-svfprintf.o)
                0x000000000201e2d8                _svfprintf_r
 .text.close    0x0000000002021128       0x14 /home/ulises/devkitPro/devkitARM/bin/../lib/gcc/arm-none-eabi/4.9.2/../../../../arm-none-eabi/lib/thumb/libg.a(lib_a-sysclose.o)
                0x0000000002021128                close
 .text.lseek    0x000000000202113c       0x1c /home/ulises/devkitPro/devkitARM/bin/../lib/gcc/arm-none-eabi/4.9.2/../../../../arm-none-eabi/lib/thumb/libg.a(lib_a-syslseek.o)
                0x000000000202113c                lseek
 .text.open     0x0000000002021158       0x28 /home/ulises/devkitPro/devkitARM/bin/../lib/gcc/arm-none-eabi/4.9.2/../../../../arm-none-eabi/lib/thumb/libg.a(lib_a-sysopen.o)
                0x0000000002021158                open
 .text.read     0x0000000002021180       0x1c /home/ulises/devkitPro/devkitARM/bin/../lib/gcc/arm-none-eabi/4.9.2/../../../../arm-none-eabi/lib/thumb/libg.a(lib_a-sysread.o)
                0x0000000002021180                read
 .text.time     0x000000000202119c       0x2c /home/ulises/devkitPro/devkitARM/bin/../lib/gcc/arm-none-eabi/4.9.2/../../../../arm-none-eabi/lib/thumb/libg.a(lib_a-time.o)
                0x000000000202119c                time
 .text.towlower
                0x00000000020211c8      0x7e0 /home/ulises/devkitPro/devkitARM/bin/../lib/gcc/arm-none-eabi/4.9.2/../../../../arm-none-eabi/lib/thumb/libg.a(lib_a-towlower.o)
                0x00000000020211c8                towlower
 .text.towupper
                0x00000000020219a8      0x9a8 /home/ulises/devkitPro/devkitARM/bin/../lib/gcc/arm-none-eabi/4.9.2/../../../../arm-none-eabi/lib/thumb/libg.a(lib_a-towupper.o)
                0x00000000020219a8                towupper
 .text.__tzcalc_limits
                0x0000000002022350      0x1a4 /home/ulises/devkitPro/devkitARM/bin/../lib/gcc/arm-none-eabi/4.9.2/../../../../arm-none-eabi/lib/thumb/libg.a(lib_a-tzcalc_limits.o)
                0x0000000002022350                __tzcalc_limits
 .text.__tz_lock
                0x00000000020224f4        0x4 /home/ulises/devkitPro/devkitARM/bin/../lib/gcc/arm-none-eabi/4.9.2/../../../../arm-none-eabi/lib/thumb/libg.a(lib_a-tzlock.o)
                0x00000000020224f4                __tz_lock
 .text.__tz_unlock
                0x00000000020224f8        0x4 /home/ulises/devkitPro/devkitARM/bin/../lib/gcc/arm-none-eabi/4.9.2/../../../../arm-none-eabi/lib/thumb/libg.a(lib_a-tzlock.o)
                0x00000000020224f8                __tz_unlock
 .text.__submore
                0x00000000020224fc       0x88 /home/ulises/devkitPro/devkitARM/bin/../lib/gcc/arm-none-eabi/4.9.2/../../../../arm-none-eabi/lib/thumb/libg.a(lib_a-ungetc.o)
                0x00000000020224fc                __submore
 .text._ungetc_r
                0x0000000002022584      0x138 /home/ulises/devkitPro/devkitARM/bin/../lib/gcc/arm-none-eabi/4.9.2/../../../../arm-none-eabi/lib/thumb/libg.a(lib_a-ungetc.o)
                0x0000000002022584                _ungetc_r
 .text.ungetc   0x00000000020226bc       0x18 /home/ulises/devkitPro/devkitARM/bin/../lib/gcc/arm-none-eabi/4.9.2/../../../../arm-none-eabi/lib/thumb/libg.a(lib_a-ungetc.o)
                0x00000000020226bc                ungetc
 .text.get_arg  0x00000000020226d4      0x4a8 /home/ulises/devkitPro/devkitARM/bin/../lib/gcc/arm-none-eabi/4.9.2/../../../../arm-none-eabi/lib/thumb/libg.a(lib_a-vfiprintf.o)
 .text.__sprint_r.part.0
                0x0000000002022b7c       0x80 /home/ulises/devkitPro/devkitARM/bin/../lib/gcc/arm-none-eabi/4.9.2/../../../../arm-none-eabi/lib/thumb/libg.a(lib_a-vfiprintf.o)
 .text.__sprint_r
                0x0000000002022bfc       0x18 /home/ulises/devkitPro/devkitARM/bin/../lib/gcc/arm-none-eabi/4.9.2/../../../../arm-none-eabi/lib/thumb/libg.a(lib_a-vfiprintf.o)
                0x0000000002022bfc                __sprint_r
 .text._vfiprintf_r
                0x0000000002022c14     0x1f58 /home/ulises/devkitPro/devkitARM/bin/../lib/gcc/arm-none-eabi/4.9.2/../../../../arm-none-eabi/lib/thumb/libg.a(lib_a-vfiprintf.o)
                0x0000000002022c14                _vfiprintf_r
 .text.vfiprintf
                0x0000000002024b6c       0x1c /home/ulises/devkitPro/devkitARM/bin/../lib/gcc/arm-none-eabi/4.9.2/../../../../arm-none-eabi/lib/thumb/libg.a(lib_a-vfiprintf.o)
                0x0000000002024b6c                vfiprintf
 .text.__sbprintf
                0x0000000002024b88       0x78 /home/ulises/devkitPro/devkitARM/bin/../lib/gcc/arm-none-eabi/4.9.2/../../../../arm-none-eabi/lib/thumb/libg.a(lib_a-vfiprintf.o)
 .text._wcrtomb_r
                0x0000000002024c00       0x6c /home/ulises/devkitPro/devkitARM/bin/../lib/gcc/arm-none-eabi/4.9.2/../../../../arm-none-eabi/lib/thumb/libg.a(lib_a-wcrtomb.o)
                0x0000000002024c00                _wcrtomb_r
 .text.wcrtomb  0x0000000002024c6c       0x74 /home/ulises/devkitPro/devkitARM/bin/../lib/gcc/arm-none-eabi/4.9.2/../../../../arm-none-eabi/lib/thumb/libg.a(lib_a-wcrtomb.o)
                0x0000000002024c6c                wcrtomb
 .text._wcsrtombs_r
                0x0000000002024ce0       0x18 /home/ulises/devkitPro/devkitARM/bin/../lib/gcc/arm-none-eabi/4.9.2/../../../../arm-none-eabi/lib/thumb/libg.a(lib_a-wcsrtombs.o)
                0x0000000002024ce0                _wcsrtombs_r
 .text.wcsrtombs
                0x0000000002024cf8       0x28 /home/ulises/devkitPro/devkitARM/bin/../lib/gcc/arm-none-eabi/4.9.2/../../../../arm-none-eabi/lib/thumb/libg.a(lib_a-wcsrtombs.o)
                0x0000000002024cf8                wcsrtombs
 .text.wctob    0x0000000002024d20       0x50 /home/ulises/devkitPro/devkitARM/bin/../lib/gcc/arm-none-eabi/4.9.2/../../../../arm-none-eabi/lib/thumb/libg.a(lib_a-wctob.o)
                0x0000000002024d20                wctob
 .text.__utf8_wctomb
                0x0000000002024d70       0xc0 /home/ulises/devkitPro/devkitARM/bin/../lib/gcc/arm-none-eabi/4.9.2/../../../../arm-none-eabi/lib/thumb/libg.a(lib_a-wctomb_r.o)
                0x0000000002024d70                __utf8_wctomb
 .text._wctomb_r
                0x0000000002024e30       0x3c /home/ulises/devkitPro/devkitARM/bin/../lib/gcc/arm-none-eabi/4.9.2/../../../../arm-none-eabi/lib/thumb/libg.a(lib_a-wctomb_r.o)
                0x0000000002024e30                _wctomb_r
 .text.__ascii_wctomb
                0x0000000002024e6c       0x1c /home/ulises/devkitPro/devkitARM/bin/../lib/gcc/arm-none-eabi/4.9.2/../../../../arm-none-eabi/lib/thumb/libg.a(lib_a-wctomb_r.o)
                0x0000000002024e6c                __ascii_wctomb
 .text.__sjis_wctomb
                0x0000000002024e88       0x80 /home/ulises/devkitPro/devkitARM/bin/../lib/gcc/arm-none-eabi/4.9.2/../../../../arm-none-eabi/lib/thumb/libg.a(lib_a-wctomb_r.o)
                0x0000000002024e88                __sjis_wctomb
 .text.__eucjp_wctomb
                0x0000000002024f08       0x88 /home/ulises/devkitPro/devkitARM/bin/../lib/gcc/arm-none-eabi/4.9.2/../../../../arm-none-eabi/lib/thumb/libg.a(lib_a-wctomb_r.o)
                0x0000000002024f08                __eucjp_wctomb
 .text.__jis_wctomb
                0x0000000002024f90       0x80 /home/ulises/devkitPro/devkitARM/bin/../lib/gcc/arm-none-eabi/4.9.2/../../../../arm-none-eabi/lib/thumb/libg.a(lib_a-wctomb_r.o)
                0x0000000002024f90                __jis_wctomb
 .text.__swsetup_r
                0x0000000002025010       0xd0 /home/ulises/devkitPro/devkitARM/bin/../lib/gcc/arm-none-eabi/4.9.2/../../../../arm-none-eabi/lib/thumb/libg.a(lib_a-wsetup.o)
                0x0000000002025010                __swsetup_r
 .text.div      0x00000000020250e0       0x40 /home/ulises/devkitPro/devkitARM/bin/../lib/gcc/arm-none-eabi/4.9.2/../../../../arm-none-eabi/lib/thumb/libg.a(lib_a-div.o)
                0x00000000020250e0                div
 .text.quorem   0x0000000002025120      0x160 /home/ulises/devkitPro/devkitARM/bin/../lib/gcc/arm-none-eabi/4.9.2/../../../../arm-none-eabi/lib/thumb/libg.a(lib_a-dtoa.o)
 .text._dtoa_r  0x0000000002025280     0x1098 /home/ulises/devkitPro/devkitARM/bin/../lib/gcc/arm-none-eabi/4.9.2/../../../../arm-none-eabi/lib/thumb/libg.a(lib_a-dtoa.o)
                0x0000000002025280                _dtoa_r
 .text.__sflags
                0x0000000002026318       0x9c /home/ulises/devkitPro/devkitARM/bin/../lib/gcc/arm-none-eabi/4.9.2/../../../../arm-none-eabi/lib/thumb/libg.a(lib_a-flags.o)
                0x0000000002026318                __sflags
 .text.__fputwc
                0x00000000020263b4       0xc0 /home/ulises/devkitPro/devkitARM/bin/../lib/gcc/arm-none-eabi/4.9.2/../../../../arm-none-eabi/lib/thumb/libg.a(lib_a-fputwc.o)
                0x00000000020263b4                __fputwc
 .text._fputwc_r
                0x0000000002026474       0x5c /home/ulises/devkitPro/devkitARM/bin/../lib/gcc/arm-none-eabi/4.9.2/../../../../arm-none-eabi/lib/thumb/libg.a(lib_a-fputwc.o)
                0x0000000002026474                _fputwc_r
 .text.fputwc   0x00000000020264d0       0x28 /home/ulises/devkitPro/devkitARM/bin/../lib/gcc/arm-none-eabi/4.9.2/../../../../arm-none-eabi/lib/thumb/libg.a(lib_a-fputwc.o)
                0x00000000020264d0                fputwc
 .text.__sfvwrite_r
                0x00000000020264f8      0x340 /home/ulises/devkitPro/devkitARM/bin/../lib/gcc/arm-none-eabi/4.9.2/../../../../arm-none-eabi/lib/thumb/libg.a(lib_a-fvwrite.o)
                0x00000000020264f8                __sfvwrite_r
 .text._findenv_r
                0x0000000002026838       0x98 /home/ulises/devkitPro/devkitARM/bin/../lib/gcc/arm-none-eabi/4.9.2/../../../../arm-none-eabi/lib/thumb/libg.a(lib_a-getenv_r.o)
                0x0000000002026838                _findenv_r
 .text._getenv_r
                0x00000000020268d0       0x10 /home/ulises/devkitPro/devkitARM/bin/../lib/gcc/arm-none-eabi/4.9.2/../../../../arm-none-eabi/lib/thumb/libg.a(lib_a-getenv_r.o)
                0x00000000020268d0                _getenv_r
 .text.__gettzinfo
                0x00000000020268e0        0x8 /home/ulises/devkitPro/devkitARM/bin/../lib/gcc/arm-none-eabi/4.9.2/../../../../arm-none-eabi/lib/thumb/libg.a(lib_a-gettzinfo.o)
                0x00000000020268e0                __gettzinfo
 .text.gmtime_r
                0x00000000020268e8      0x188 /home/ulises/devkitPro/devkitARM/bin/../lib/gcc/arm-none-eabi/4.9.2/../../../../arm-none-eabi/lib/thumb/libg.a(lib_a-gmtime_r.o)
                0x00000000020268e8                gmtime_r
 .text.iswspace
                0x0000000002026a70       0x78 /home/ulises/devkitPro/devkitARM/bin/../lib/gcc/arm-none-eabi/4.9.2/../../../../arm-none-eabi/lib/thumb/libg.a(lib_a-iswspace.o)
                0x0000000002026a70                iswspace
 .text.__jp2uc  0x0000000002026ae8      0x184 /home/ulises/devkitPro/devkitARM/bin/../lib/gcc/arm-none-eabi/4.9.2/../../../../arm-none-eabi/lib/thumb/libg.a(lib_a-jp2uc.o)
 .text._jp2uc   0x0000000002026c6c       0x64 /home/ulises/devkitPro/devkitARM/bin/../lib/gcc/arm-none-eabi/4.9.2/../../../../arm-none-eabi/lib/thumb/libg.a(lib_a-jp2uc.o)
                0x0000000002026c6c                _jp2uc
 .text._mbsnrtowcs_r
                0x0000000002026cd0       0xc0 /home/ulises/devkitPro/devkitARM/bin/../lib/gcc/arm-none-eabi/4.9.2/../../../../arm-none-eabi/lib/thumb/libg.a(lib_a-mbsnrtowcs.o)
                0x0000000002026cd0                _mbsnrtowcs_r
 .text.mbsnrtowcs
                0x0000000002026d90       0x28 /home/ulises/devkitPro/devkitARM/bin/../lib/gcc/arm-none-eabi/4.9.2/../../../../arm-none-eabi/lib/thumb/libg.a(lib_a-mbsnrtowcs.o)
                0x0000000002026d90                mbsnrtowcs
 .text.memchr   0x0000000002026db8       0x8c /home/ulises/devkitPro/devkitARM/bin/../lib/gcc/arm-none-eabi/4.9.2/../../../../arm-none-eabi/lib/thumb/libg.a(lib_a-memchr.o)
                0x0000000002026db8                memchr
 .text._Balloc  0x0000000002026e44       0x54 /home/ulises/devkitPro/devkitARM/bin/../lib/gcc/arm-none-eabi/4.9.2/../../../../arm-none-eabi/lib/thumb/libg.a(lib_a-mprec.o)
                0x0000000002026e44                _Balloc
 .text._Bfree   0x0000000002026e98       0x14 /home/ulises/devkitPro/devkitARM/bin/../lib/gcc/arm-none-eabi/4.9.2/../../../../arm-none-eabi/lib/thumb/libg.a(lib_a-mprec.o)
                0x0000000002026e98                _Bfree
 .text.__multadd
                0x0000000002026eac       0x9c /home/ulises/devkitPro/devkitARM/bin/../lib/gcc/arm-none-eabi/4.9.2/../../../../arm-none-eabi/lib/thumb/libg.a(lib_a-mprec.o)
                0x0000000002026eac                __multadd
 .text.__s2b    0x0000000002026f48       0x9c /home/ulises/devkitPro/devkitARM/bin/../lib/gcc/arm-none-eabi/4.9.2/../../../../arm-none-eabi/lib/thumb/libg.a(lib_a-mprec.o)
                0x0000000002026f48                __s2b
 .text.__hi0bits
                0x0000000002026fe4       0x3c /home/ulises/devkitPro/devkitARM/bin/../lib/gcc/arm-none-eabi/4.9.2/../../../../arm-none-eabi/lib/thumb/libg.a(lib_a-mprec.o)
                0x0000000002026fe4                __hi0bits
 .text.__lo0bits
                0x0000000002027020       0x5c /home/ulises/devkitPro/devkitARM/bin/../lib/gcc/arm-none-eabi/4.9.2/../../../../arm-none-eabi/lib/thumb/libg.a(lib_a-mprec.o)
                0x0000000002027020                __lo0bits
 .text.__i2b    0x000000000202707c       0x18 /home/ulises/devkitPro/devkitARM/bin/../lib/gcc/arm-none-eabi/4.9.2/../../../../arm-none-eabi/lib/thumb/libg.a(lib_a-mprec.o)
                0x000000000202707c                __i2b
 .text.__multiply
                0x0000000002027094      0x168 /home/ulises/devkitPro/devkitARM/bin/../lib/gcc/arm-none-eabi/4.9.2/../../../../arm-none-eabi/lib/thumb/libg.a(lib_a-mprec.o)
                0x0000000002027094                __multiply
 .text.__pow5mult
                0x00000000020271fc       0xc0 /home/ulises/devkitPro/devkitARM/bin/../lib/gcc/arm-none-eabi/4.9.2/../../../../arm-none-eabi/lib/thumb/libg.a(lib_a-mprec.o)
                0x00000000020271fc                __pow5mult
 .text.__lshift
                0x00000000020272bc       0xd0 /home/ulises/devkitPro/devkitARM/bin/../lib/gcc/arm-none-eabi/4.9.2/../../../../arm-none-eabi/lib/thumb/libg.a(lib_a-mprec.o)
                0x00000000020272bc                __lshift
 .text.__mcmp   0x000000000202738c       0x3c /home/ulises/devkitPro/devkitARM/bin/../lib/gcc/arm-none-eabi/4.9.2/../../../../arm-none-eabi/lib/thumb/libg.a(lib_a-mprec.o)
                0x000000000202738c                __mcmp
 .text.__mdiff  0x00000000020273c8       0xec /home/ulises/devkitPro/devkitARM/bin/../lib/gcc/arm-none-eabi/4.9.2/../../../../arm-none-eabi/lib/thumb/libg.a(lib_a-mprec.o)
                0x00000000020273c8                __mdiff
 .text.__ulp    0x00000000020274b4       0x50 /home/ulises/devkitPro/devkitARM/bin/../lib/gcc/arm-none-eabi/4.9.2/../../../../arm-none-eabi/lib/thumb/libg.a(lib_a-mprec.o)
                0x00000000020274b4                __ulp
 .text.__b2d    0x0000000002027504       0xe0 /home/ulises/devkitPro/devkitARM/bin/../lib/gcc/arm-none-eabi/4.9.2/../../../../arm-none-eabi/lib/thumb/libg.a(lib_a-mprec.o)
                0x0000000002027504                __b2d
 .text.__d2b    0x00000000020275e4       0xc0 /home/ulises/devkitPro/devkitARM/bin/../lib/gcc/arm-none-eabi/4.9.2/../../../../arm-none-eabi/lib/thumb/libg.a(lib_a-mprec.o)
                0x00000000020275e4                __d2b
 .text.__ratio  0x00000000020276a4       0x74 /home/ulises/devkitPro/devkitARM/bin/../lib/gcc/arm-none-eabi/4.9.2/../../../../arm-none-eabi/lib/thumb/libg.a(lib_a-mprec.o)
                0x00000000020276a4                __ratio
 .text._mprec_log10
                0x0000000002027718       0x48 /home/ulises/devkitPro/devkitARM/bin/../lib/gcc/arm-none-eabi/4.9.2/../../../../arm-none-eabi/lib/thumb/libg.a(lib_a-mprec.o)
                0x0000000002027718                _mprec_log10
 .text.__copybits
                0x0000000002027760       0x44 /home/ulises/devkitPro/devkitARM/bin/../lib/gcc/arm-none-eabi/4.9.2/../../../../arm-none-eabi/lib/thumb/libg.a(lib_a-mprec.o)
                0x0000000002027760                __copybits
 .text.__any_on
                0x00000000020277a4       0x64 /home/ulises/devkitPro/devkitARM/bin/../lib/gcc/arm-none-eabi/4.9.2/../../../../arm-none-eabi/lib/thumb/libg.a(lib_a-mprec.o)
                0x00000000020277a4                __any_on
 .text.__sccl   0x0000000002027808       0x7c /home/ulises/devkitPro/devkitARM/bin/../lib/gcc/arm-none-eabi/4.9.2/../../../../arm-none-eabi/lib/thumb/libg.a(lib_a-sccl.o)
                0x0000000002027808                __sccl
 .text.__fpclassifyd
                0x0000000002027884       0x5c /home/ulises/devkitPro/devkitARM/bin/../lib/gcc/arm-none-eabi/4.9.2/../../../../arm-none-eabi/lib/thumb/libg.a(lib_a-s_fpclassify.o)
                0x0000000002027884                __fpclassifyd
 .text.frexp    0x00000000020278e0       0x80 /home/ulises/devkitPro/devkitARM/bin/../lib/gcc/arm-none-eabi/4.9.2/../../../../arm-none-eabi/lib/thumb/libg.a(lib_a-s_frexp.o)
                0x00000000020278e0                frexp
 .text._strtoll_r
                0x0000000002027960      0x228 /home/ulises/devkitPro/devkitARM/bin/../lib/gcc/arm-none-eabi/4.9.2/../../../../arm-none-eabi/lib/thumb/libg.a(lib_a-strtoll_r.o)
                0x0000000002027960                _strtoll_r
 .text._strtoull_r
                0x0000000002027b88      0x20c /home/ulises/devkitPro/devkitARM/bin/../lib/gcc/arm-none-eabi/4.9.2/../../../../arm-none-eabi/lib/thumb/libg.a(lib_a-strtoull_r.o)
                0x0000000002027b88                _strtoull_r
 .text._strtoul_r
                0x0000000002027d94      0x178 /home/ulises/devkitPro/devkitARM/bin/../lib/gcc/arm-none-eabi/4.9.2/../../../../arm-none-eabi/lib/thumb/libg.a(lib_a-strtoul.o)
                0x0000000002027d94                _strtoul_r
 .text.strtoul  0x0000000002027f0c       0x1c /home/ulises/devkitPro/devkitARM/bin/../lib/gcc/arm-none-eabi/4.9.2/../../../../arm-none-eabi/lib/thumb/libg.a(lib_a-strtoul.o)
                0x0000000002027f0c                strtoul
 .text.get_arg  0x0000000002027f28      0x4a8 /home/ulises/devkitPro/devkitARM/bin/../lib/gcc/arm-none-eabi/4.9.2/../../../../arm-none-eabi/lib/thumb/libg.a(lib_a-svfiprintf.o)
 .text.__ssprint_r
                0x00000000020283d0      0x134 /home/ulises/devkitPro/devkitARM/bin/../lib/gcc/arm-none-eabi/4.9.2/../../../../arm-none-eabi/lib/thumb/libg.a(lib_a-svfiprintf.o)
                0x00000000020283d0                __ssprint_r
 .text._svfiprintf_r
                0x0000000002028504     0x1d80 /home/ulises/devkitPro/devkitARM/bin/../lib/gcc/arm-none-eabi/4.9.2/../../../../arm-none-eabi/lib/thumb/libg.a(lib_a-svfiprintf.o)
                0x0000000002028504                _svfiprintf_r
 .text.__swbuf_r
                0x000000000202a284       0xb8 /home/ulises/devkitPro/devkitARM/bin/../lib/gcc/arm-none-eabi/4.9.2/../../../../arm-none-eabi/lib/thumb/libg.a(lib_a-wbuf.o)
                0x000000000202a284                __swbuf_r
 .text.__swbuf  0x000000000202a33c       0x18 /home/ulises/devkitPro/devkitARM/bin/../lib/gcc/arm-none-eabi/4.9.2/../../../../arm-none-eabi/lib/thumb/libg.a(lib_a-wbuf.o)
                0x000000000202a33c                __swbuf
 .text._wcsnrtombs_r
                0x000000000202a354      0x110 /home/ulises/devkitPro/devkitARM/bin/../lib/gcc/arm-none-eabi/4.9.2/../../../../arm-none-eabi/lib/thumb/libg.a(lib_a-wcsnrtombs.o)
                0x000000000202a354                _wcsnrtombs_r
 .text.wcsnrtombs
                0x000000000202a464       0x28 /home/ulises/devkitPro/devkitARM/bin/../lib/gcc/arm-none-eabi/4.9.2/../../../../arm-none-eabi/lib/thumb/libg.a(lib_a-wcsnrtombs.o)
                0x000000000202a464                wcsnrtombs
 .text.__env_lock
                0x000000000202a48c        0x4 /home/ulises/devkitPro/devkitARM/bin/../lib/gcc/arm-none-eabi/4.9.2/../../../../arm-none-eabi/lib/thumb/libg.a(lib_a-envlock.o)
                0x000000000202a48c                __env_lock
 .text.__env_unlock
                0x000000000202a490        0x4 /home/ulises/devkitPro/devkitARM/bin/../lib/gcc/arm-none-eabi/4.9.2/../../../../arm-none-eabi/lib/thumb/libg.a(lib_a-envlock.o)
                0x000000000202a490                __env_unlock
 .text.__errno  0x000000000202a494        0xc /home/ulises/devkitPro/devkitARM/bin/../lib/gcc/arm-none-eabi/4.9.2/../../../../arm-none-eabi/lib/thumb/libg.a(lib_a-errno.o)
                0x000000000202a494                __errno
 .text.__errno.__stub
                0x000000000202a4a0       0xe0 linker stubs
 *(.stub)
 *(.gnu.warning)
 *(.gnu.linkonce.t*)
 *(.glue_7)
 .glue_7        0x000000000202a590        0x0 linker stubs
 *(.glue_7t)
 .glue_7t       0x000000000202a590        0x0 linker stubs
                0x000000000202a590                . = ALIGN (0x4)

.vfp11_veneer   0x000000000202a590        0x0
 .vfp11_veneer  0x000000000202a590        0x0 linker stubs

.v4_bx          0x000000000202a590        0x0
 .v4_bx         0x000000000202a590        0x0 linker stubs

.iplt           0x000000000202a590        0x0
 .iplt          0x000000000202a590        0x0 /home/ulises/devkitPro/devkitARM/bin/../lib/gcc/arm-none-eabi/4.9.2/../../../../arm-none-eabi/lib/thumb/ds_arm9_crt0.o

.fini           0x000000000202a590        0xc
 *(.fini)
 .fini          0x000000000202a590        0x4 /home/ulises/devkitPro/devkitARM/bin/../lib/gcc/arm-none-eabi/4.9.2/thumb/crti.o
                0x000000000202a590                _fini
 .fini          0x000000000202a594        0x8 /home/ulises/devkitPro/devkitARM/bin/../lib/gcc/arm-none-eabi/4.9.2/thumb/crtn.o
                0x000000000202a59c                __text_end = .

.rodata         0x000000000202a5a0     0x85dc
 *(.rodata)
 .rodata        0x000000000202a5a0       0x5c main.o
 .rodata        0x000000000202a5fc       0x4c /home/ulises/Escritorio/dbz/nflib/lib/libnflib.a(nf_basic.o)
 .rodata        0x000000000202a648       0x68 /home/ulises/devkitPro/libnds/lib/libfat.a(libfat.o)
 .rodata        0x000000000202a6b0        0xc /home/ulises/devkitPro/libnds/lib/libfat.a(partition.o)
 .rodata        0x000000000202a6bc       0x18 /home/ulises/devkitPro/libnds/lib/libfat.a(disc.o)
                0x000000000202a6bc                _FAT_disc_interfaces
 .rodata        0x000000000202a6d4       0x54 /home/ulises/devkitPro/libnds/lib/libfat.a(directory.o)
 .rodata        0x000000000202a728      0x308 /home/ulises/devkitPro/libnds/lib/libnds9.a(trig.o)
                0x000000000202a728                SIN_LUT
                0x000000000202a82c                TAN_LUT
 .rodata        0x000000000202aa30      0x20c /home/ulises/devkitPro/libnds/lib/libnds9.a(console.o)
 .rodata        0x000000000202ac3c        0xc /home/ulises/devkitPro/libnds/lib/libnds9.a(dldi.o)
                0x000000000202ac3c                DLDI_MAGIC_STRING_BACKWARDS
                0x000000000202ac44                DLDI_MAGIC_NUMBER
 .rodata        0x000000000202ac48       0x20 /home/ulises/devkitPro/libnds/lib/libnds9.a(dsi_sd.o)
                0x000000000202ac48                __io_dsisd
 .rodata        0x000000000202ac68     0x2004 /home/ulises/devkitPro/libnds/lib/libnds9.a(default_font.bin.o)
                0x000000000202ac68                default_font_bin
                0x000000000202cc68                default_font_bin_end
                0x000000000202cc68                default_font_bin_size
 .rodata        0x000000000202cc6c       0x68 /home/ulises/devkitPro/devkitARM/bin/../lib/gcc/arm-none-eabi/4.9.2/../../../../arm-none-eabi/lib/thumb/libsysbase.a(iosupport.o)
                0x000000000202cc6c                dotab_stdnull
 .rodata        0x000000000202ccd4        0xc /home/ulises/devkitPro/devkitARM/bin/../lib/gcc/arm-none-eabi/4.9.2/../../../../arm-none-eabi/lib/thumb/libsysbase.a(chdir.o)
                0x000000000202ccd4                DIRECTORY_PARENT
                0x000000000202ccd8                DIRECTORY_THIS
                0x000000000202ccdc                DIRECTORY_SEPARATOR
 *all.rodata*(*)
 *(.roda)
 *(.rodata.*)
 .rodata.str1.4
                0x000000000202cce0      0x24d main.o
                                        0x250 (size before relaxing)
 *fill*         0x000000000202cf2d        0x3 ff
 .rodata.str1.4
                0x000000000202cf30       0x27 /home/ulises/Escritorio/dbz/nflib/lib/libnflib.a(nf_2d.o)
                                         0x28 (size before relaxing)
 *fill*         0x000000000202cf57        0x1 ff
 .rodata.str1.4
                0x000000000202cf58      0x5c7 /home/ulises/Escritorio/dbz/nflib/lib/libnflib.a(nf_basic.o)
                                        0x5dc (size before relaxing)
 *fill*         0x000000000202d51f        0x1 ff
 .rodata.str1.4
                0x000000000202d520       0x26 /home/ulises/Escritorio/dbz/nflib/lib/libnflib.a(nf_sound.o)
                                         0x28 (size before relaxing)
 *fill*         0x000000000202d546        0x2 ff
 .rodata.str1.4
                0x000000000202d548       0x6c /home/ulises/Escritorio/dbz/nflib/lib/libnflib.a(nf_sprite256.o)
                                         0x7c (size before relaxing)
 .rodata.str1.4
                0x000000000202d5b4       0x4c /home/ulises/Escritorio/dbz/nflib/lib/libnflib.a(nf_tiledbg.o)
                                         0x6c (size before relaxing)
 .rodata.str1.4
                0x000000000202d600       0x16 /home/ulises/devkitPro/libnds/lib/libfilesystem.a(nitrofs.o)
                                         0x20 (size before relaxing)
 *fill*         0x000000000202d616        0x2 ff
 .rodata.str1.4
                0x000000000202d618       0x10 /home/ulises/devkitPro/libnds/lib/libfat.a(libfat.o)
                                         0x14 (size before relaxing)
 .rodata.str1.4
                0x000000000202d628        0x5 /home/ulises/devkitPro/libnds/lib/libfat.a(fatdir.o)
                                          0x8 (size before relaxing)
 .rodata.str1.4
                0x000000000202d62d        0x8 /home/ulises/devkitPro/libnds/lib/libfat.a(disc.o)
 .rodata.str1.4
                0x000000000202d62d        0x8 /home/ulises/devkitPro/libnds/lib/libfat.a(directory.o)
 *fill*         0x000000000202d62d        0x3 ff
 .rodata.str1.4
                0x000000000202d630       0x4c /home/ulises/devkitPro/libnds/lib/libnds9.a(console.o)
 .rodata._ctype_
                0x000000000202d67c      0x104 /home/ulises/devkitPro/devkitARM/bin/../lib/gcc/arm-none-eabi/4.9.2/../../../../arm-none-eabi/lib/thumb/libg.a(lib_a-ctype_.o)
                0x000000000202d67c                _ctype_
 .rodata.str1.4
                0x000000000202d780        0x2 /home/ulises/devkitPro/devkitARM/bin/../lib/gcc/arm-none-eabi/4.9.2/../../../../arm-none-eabi/lib/thumb/libg.a(lib_a-impure.o)
                                          0x4 (size before relaxing)
 *fill*         0x000000000202d782        0x2 ff
 .rodata._global_impure_ptr
                0x000000000202d784        0x4 /home/ulises/devkitPro/devkitARM/bin/../lib/gcc/arm-none-eabi/4.9.2/../../../../arm-none-eabi/lib/thumb/libg.a(lib_a-impure.o)
                0x000000000202d784                _global_impure_ptr
 .rodata.loadlocale
                0x000000000202d788       0xd4 /home/ulises/devkitPro/devkitARM/bin/../lib/gcc/arm-none-eabi/4.9.2/../../../../arm-none-eabi/lib/thumb/libg.a(lib_a-locale.o)
 .rodata.str1.4
                0x000000000202d85c      0x120 /home/ulises/devkitPro/devkitARM/bin/../lib/gcc/arm-none-eabi/4.9.2/../../../../arm-none-eabi/lib/thumb/libg.a(lib_a-locale.o)
                                        0x130 (size before relaxing)
 .rodata.categories
                0x000000000202d97c       0x1c /home/ulises/devkitPro/devkitARM/bin/../lib/gcc/arm-none-eabi/4.9.2/../../../../arm-none-eabi/lib/thumb/libg.a(lib_a-locale.o)
 .rodata.str1.4
                0x000000000202d998        0x4 /home/ulises/devkitPro/devkitARM/bin/../lib/gcc/arm-none-eabi/4.9.2/../../../../arm-none-eabi/lib/thumb/libg.a(lib_a-mbrtowc.o)
 .rodata.__jis_mbtowc
                0x000000000202d998       0x18 /home/ulises/devkitPro/devkitARM/bin/../lib/gcc/arm-none-eabi/4.9.2/../../../../arm-none-eabi/lib/thumb/libg.a(lib_a-mbtowc_r.o)
 .rodata.JIS_state_table
                0x000000000202d9b0       0x48 /home/ulises/devkitPro/devkitARM/bin/../lib/gcc/arm-none-eabi/4.9.2/../../../../arm-none-eabi/lib/thumb/libg.a(lib_a-mbtowc_r.o)
 .rodata.JIS_action_table
                0x000000000202d9f8       0x48 /home/ulises/devkitPro/devkitARM/bin/../lib/gcc/arm-none-eabi/4.9.2/../../../../arm-none-eabi/lib/thumb/libg.a(lib_a-mbtowc_r.o)
 .rodata._DAYS_BEFORE_MONTH
                0x000000000202da40       0x30 /home/ulises/devkitPro/devkitARM/bin/../lib/gcc/arm-none-eabi/4.9.2/../../../../arm-none-eabi/lib/thumb/libg.a(lib_a-mktime.o)
 .rodata.DAYS_IN_MONTH
                0x000000000202da70       0x30 /home/ulises/devkitPro/devkitARM/bin/../lib/gcc/arm-none-eabi/4.9.2/../../../../arm-none-eabi/lib/thumb/libg.a(lib_a-mktime.o)
 .rodata.__month_lengths
                0x000000000202daa0       0x60 /home/ulises/devkitPro/devkitARM/bin/../lib/gcc/arm-none-eabi/4.9.2/../../../../arm-none-eabi/lib/thumb/libg.a(lib_a-month_lengths.o)
                0x000000000202daa0                __month_lengths
 .rodata.__ssvfiscanf_r
                0x000000000202db00      0x324 /home/ulises/devkitPro/devkitARM/bin/../lib/gcc/arm-none-eabi/4.9.2/../../../../arm-none-eabi/lib/thumb/libg.a(lib_a-svfiscanf.o)
 .rodata.basefix.6409
                0x000000000202de24       0x24 /home/ulises/devkitPro/devkitARM/bin/../lib/gcc/arm-none-eabi/4.9.2/../../../../arm-none-eabi/lib/thumb/libg.a(lib_a-svfiscanf.o)
 .rodata.get_arg
                0x000000000202de48      0x1f8 /home/ulises/devkitPro/devkitARM/bin/../lib/gcc/arm-none-eabi/4.9.2/../../../../arm-none-eabi/lib/thumb/libg.a(lib_a-svfprintf.o)
 .rodata._svfprintf_r
                0x000000000202e040      0x16c /home/ulises/devkitPro/devkitARM/bin/../lib/gcc/arm-none-eabi/4.9.2/../../../../arm-none-eabi/lib/thumb/libg.a(lib_a-svfprintf.o)
 .rodata.zeroes.7037
                0x000000000202e1ac       0x10 /home/ulises/devkitPro/devkitARM/bin/../lib/gcc/arm-none-eabi/4.9.2/../../../../arm-none-eabi/lib/thumb/libg.a(lib_a-svfprintf.o)
 .rodata.str1.4
                0x000000000202e1bc       0x42 /home/ulises/devkitPro/devkitARM/bin/../lib/gcc/arm-none-eabi/4.9.2/../../../../arm-none-eabi/lib/thumb/libg.a(lib_a-svfprintf.o)
                                         0x44 (size before relaxing)
 *fill*         0x000000000202e1fe        0x2 ff
 .rodata.blanks.7036
                0x000000000202e200       0x10 /home/ulises/devkitPro/devkitARM/bin/../lib/gcc/arm-none-eabi/4.9.2/../../../../arm-none-eabi/lib/thumb/libg.a(lib_a-svfprintf.o)
 .rodata.towlower
                0x000000000202e210      0x674 /home/ulises/devkitPro/devkitARM/bin/../lib/gcc/arm-none-eabi/4.9.2/../../../../arm-none-eabi/lib/thumb/libg.a(lib_a-towlower.o)
 .rodata.towupper
                0x000000000202e884      0x2dc /home/ulises/devkitPro/devkitARM/bin/../lib/gcc/arm-none-eabi/4.9.2/../../../../arm-none-eabi/lib/thumb/libg.a(lib_a-towupper.o)
 .rodata.CSWTCH.1
                0x000000000202eb60      0x108 /home/ulises/devkitPro/devkitARM/bin/../lib/gcc/arm-none-eabi/4.9.2/../../../../arm-none-eabi/lib/thumb/libg.a(lib_a-towupper.o)
 .rodata.str1.4
                0x000000000202ec68        0x4 /home/ulises/devkitPro/devkitARM/bin/../lib/gcc/arm-none-eabi/4.9.2/../../../../arm-none-eabi/lib/thumb/libg.a(lib_a-tzvars.o)
 .rodata.get_arg
                0x000000000202ec6c      0x1f8 /home/ulises/devkitPro/devkitARM/bin/../lib/gcc/arm-none-eabi/4.9.2/../../../../arm-none-eabi/lib/thumb/libg.a(lib_a-vfiprintf.o)
 .rodata._vfiprintf_r
                0x000000000202ee64      0x16c /home/ulises/devkitPro/devkitARM/bin/../lib/gcc/arm-none-eabi/4.9.2/../../../../arm-none-eabi/lib/thumb/libg.a(lib_a-vfiprintf.o)
 .rodata.zeroes.7030
                0x000000000202efd0       0x10 /home/ulises/devkitPro/devkitARM/bin/../lib/gcc/arm-none-eabi/4.9.2/../../../../arm-none-eabi/lib/thumb/libg.a(lib_a-vfiprintf.o)
 .rodata.str1.4
                0x000000000202efe0       0x30 /home/ulises/devkitPro/devkitARM/bin/../lib/gcc/arm-none-eabi/4.9.2/../../../../arm-none-eabi/lib/thumb/libg.a(lib_a-vfiprintf.o)
 .rodata.blanks.7029
                0x000000000202efe0       0x10 /home/ulises/devkitPro/devkitARM/bin/../lib/gcc/arm-none-eabi/4.9.2/../../../../arm-none-eabi/lib/thumb/libg.a(lib_a-vfiprintf.o)
 .rodata.str1.4
                0x000000000202eff0       0x10 /home/ulises/devkitPro/devkitARM/bin/../lib/gcc/arm-none-eabi/4.9.2/../../../../arm-none-eabi/lib/thumb/libg.a(lib_a-dtoa.o)
                                         0x14 (size before relaxing)
 .rodata.__jp2uc
                0x000000000202f000       0x20 /home/ulises/devkitPro/devkitARM/bin/../lib/gcc/arm-none-eabi/4.9.2/../../../../arm-none-eabi/lib/thumb/libg.a(lib_a-jp2uc.o)
 .rodata.a1     0x000000000202f020       0xbc /home/ulises/devkitPro/devkitARM/bin/../lib/gcc/arm-none-eabi/4.9.2/../../../../arm-none-eabi/lib/thumb/libg.a(lib_a-jp2uc.o)
 .rodata.a2     0x000000000202f0dc       0xbc /home/ulises/devkitPro/devkitARM/bin/../lib/gcc/arm-none-eabi/4.9.2/../../../../arm-none-eabi/lib/thumb/libg.a(lib_a-jp2uc.o)
 .rodata.a3     0x000000000202f198       0x5c /home/ulises/devkitPro/devkitARM/bin/../lib/gcc/arm-none-eabi/4.9.2/../../../../arm-none-eabi/lib/thumb/libg.a(lib_a-jp2uc.o)
 .rodata.a6     0x000000000202f1f4       0x70 /home/ulises/devkitPro/devkitARM/bin/../lib/gcc/arm-none-eabi/4.9.2/../../../../arm-none-eabi/lib/thumb/libg.a(lib_a-jp2uc.o)
 .rodata.a7     0x000000000202f264       0xa4 /home/ulises/devkitPro/devkitARM/bin/../lib/gcc/arm-none-eabi/4.9.2/../../../../arm-none-eabi/lib/thumb/libg.a(lib_a-jp2uc.o)
 .rodata.a8     0x000000000202f308       0x40 /home/ulises/devkitPro/devkitARM/bin/../lib/gcc/arm-none-eabi/4.9.2/../../../../arm-none-eabi/lib/thumb/libg.a(lib_a-jp2uc.o)
 .rodata.str1.4
                0x000000000202f348       0x14 /home/ulises/devkitPro/devkitARM/bin/../lib/gcc/arm-none-eabi/4.9.2/../../../../arm-none-eabi/lib/thumb/libg.a(lib_a-jp2uc.o)
 .rodata.b02cf  0x000000000202f348     0x172c /home/ulises/devkitPro/devkitARM/bin/../lib/gcc/arm-none-eabi/4.9.2/../../../../arm-none-eabi/lib/thumb/libg.a(lib_a-jp2uc.o)
 .rodata.d02f4  0x0000000002030a74     0x1a7c /home/ulises/devkitPro/devkitARM/bin/../lib/gcc/arm-none-eabi/4.9.2/../../../../arm-none-eabi/lib/thumb/libg.a(lib_a-jp2uc.o)
 .rodata.p05.5298
                0x00000000020324f0        0xc /home/ulises/devkitPro/devkitARM/bin/../lib/gcc/arm-none-eabi/4.9.2/../../../../arm-none-eabi/lib/thumb/libg.a(lib_a-mprec.o)
 *fill*         0x00000000020324fc        0x4 ff
 .rodata.__mprec_tens
                0x0000000002032500       0xc8 /home/ulises/devkitPro/devkitARM/bin/../lib/gcc/arm-none-eabi/4.9.2/../../../../arm-none-eabi/lib/thumb/libg.a(lib_a-mprec.o)
                0x0000000002032500                __mprec_tens
 .rodata.__mprec_bigtens
                0x00000000020325c8       0x28 /home/ulises/devkitPro/devkitARM/bin/../lib/gcc/arm-none-eabi/4.9.2/../../../../arm-none-eabi/lib/thumb/libg.a(lib_a-mprec.o)
                0x00000000020325c8                __mprec_bigtens
 .rodata.__mprec_tinytens
                0x00000000020325f0       0x28 /home/ulises/devkitPro/devkitARM/bin/../lib/gcc/arm-none-eabi/4.9.2/../../../../arm-none-eabi/lib/thumb/libg.a(lib_a-mprec.o)
                0x00000000020325f0                __mprec_tinytens
 .rodata.get_arg
                0x0000000002032618      0x1f8 /home/ulises/devkitPro/devkitARM/bin/../lib/gcc/arm-none-eabi/4.9.2/../../../../arm-none-eabi/lib/thumb/libg.a(lib_a-svfiprintf.o)
 .rodata._svfiprintf_r
                0x0000000002032810      0x16c /home/ulises/devkitPro/devkitARM/bin/../lib/gcc/arm-none-eabi/4.9.2/../../../../arm-none-eabi/lib/thumb/libg.a(lib_a-svfiprintf.o)
 .rodata.__state_table
                0x000000000203297c       0x6c /home/ulises/devkitPro/devkitARM/bin/../lib/gcc/arm-none-eabi/4.9.2/../../../../arm-none-eabi/lib/thumb/libg.a(lib_a-svfiprintf.o)
                0x000000000203297c                __state_table
 .rodata.blanks.7015
                0x00000000020329e8       0x10 /home/ulises/devkitPro/devkitARM/bin/../lib/gcc/arm-none-eabi/4.9.2/../../../../arm-none-eabi/lib/thumb/libg.a(lib_a-svfiprintf.o)
 .rodata.__chclass
                0x00000000020329f8      0x100 /home/ulises/devkitPro/devkitARM/bin/../lib/gcc/arm-none-eabi/4.9.2/../../../../arm-none-eabi/lib/thumb/libg.a(lib_a-svfiprintf.o)
                0x00000000020329f8                __chclass
 .rodata.str1.4
                0x0000000002032af8       0x30 /home/ulises/devkitPro/devkitARM/bin/../lib/gcc/arm-none-eabi/4.9.2/../../../../arm-none-eabi/lib/thumb/libg.a(lib_a-svfiprintf.o)
 .rodata.__action_table
                0x0000000002032af8       0x6c /home/ulises/devkitPro/devkitARM/bin/../lib/gcc/arm-none-eabi/4.9.2/../../../../arm-none-eabi/lib/thumb/libg.a(lib_a-svfiprintf.o)
                0x0000000002032af8                __action_table
 .rodata.zeroes.7016
                0x0000000002032b64       0x10 /home/ulises/devkitPro/devkitARM/bin/../lib/gcc/arm-none-eabi/4.9.2/../../../../arm-none-eabi/lib/thumb/libg.a(lib_a-svfiprintf.o)
 .rodata.str1.4
                0x0000000002032b74        0x8 /home/ulises/devkitPro/devkitARM/bin/../lib/gcc/arm-none-eabi/4.9.2/../../../../arm-none-eabi/lib/thumb/libsysbase.a(iosupport.o)
 *(.gnu.linkonce.r*)
                0x0000000002032b7c                . = ALIGN (0x4)

.rel.dyn        0x0000000002032b7c        0x0
 .rel.iplt      0x0000000002032b7c        0x0 /home/ulises/devkitPro/devkitARM/bin/../lib/gcc/arm-none-eabi/4.9.2/../../../../arm-none-eabi/lib/thumb/ds_arm9_crt0.o

.ARM.extab
 *(.ARM.extab* .gnu.linkonce.armextab.*)
                0x0000000002032b7c                __exidx_start = .

ARM.exidx
 *(.ARM.exidx* .gnu.linkonce.armexidx.*)
                0x0000000002032b7c                __exidx_end = .
                0x0000000002032b7c                . = ALIGN (0x4)
                0x0000000002032b7c                PROVIDE (__preinit_array_start, .)

.preinit_array
 *(.preinit_array)
                0x0000000002032b7c                PROVIDE (__preinit_array_end, .)
                0x0000000002032b7c                PROVIDE (__init_array_start, .)

.init_array     0x0000000002032b7c        0x4
 *(SORT(.init_array.*))
 *(.init_array)
 .init_array    0x0000000002032b7c        0x4 /home/ulises/devkitPro/devkitARM/bin/../lib/gcc/arm-none-eabi/4.9.2/thumb/crtbegin.o
                0x0000000002032b80                PROVIDE (__init_array_end, .)
                0x0000000002032b80                PROVIDE (__fini_array_start, .)

.fini_array     0x0000000002032b80        0x4
 *(.fini_array)
 .fini_array    0x0000000002032b80        0x4 /home/ulises/devkitPro/devkitARM/bin/../lib/gcc/arm-none-eabi/4.9.2/thumb/crtbegin.o
 *(SORT(.fini_array.*))
                0x0000000002032b84                PROVIDE (__fini_array_end, .)

.ctors          0x0000000002032b84        0x0
 *crtbegin.o(.ctors)
 *(EXCLUDE_FILE(*crtend.o) .ctors)
 *(SORT(.ctors.*))
 *(.ctors)
                0x0000000002032b84                . = ALIGN (0x4)

.dtors          0x0000000002032b84        0x0
 *crtbegin.o(.dtors)
 *(EXCLUDE_FILE(*crtend.o) .dtors)
 *(SORT(.dtors.*))
 *(.dtors)
                0x0000000002032b84                . = ALIGN (0x4)

.eh_frame       0x0000000002032b84       0x48
 *(.eh_frame)
 .eh_frame      0x0000000002032b84        0x0 /home/ulises/devkitPro/devkitARM/bin/../lib/gcc/arm-none-eabi/4.9.2/thumb/crtbegin.o
 .eh_frame      0x0000000002032b84       0x44 /home/ulises/devkitPro/devkitARM/bin/../lib/gcc/arm-none-eabi/4.9.2/../../../../arm-none-eabi/lib/thumb/libg.a(lib_a-strcmp.o)
 .eh_frame      0x0000000002032bc8        0x4 /home/ulises/devkitPro/devkitARM/bin/../lib/gcc/arm-none-eabi/4.9.2/thumb/crtend.o
                0x0000000002032bcc                . = ALIGN (0x4)

.gcc_except_table
                0x0000000002032bcc        0x0
 *(.gcc_except_table)
                0x0000000002032bcc                . = ALIGN (0x4)

.jcr            0x0000000002032bcc        0x4
 *(.jcr)
 .jcr           0x0000000002032bcc        0x0 /home/ulises/devkitPro/devkitARM/bin/../lib/gcc/arm-none-eabi/4.9.2/thumb/crtbegin.o
 .jcr           0x0000000002032bcc        0x4 /home/ulises/devkitPro/devkitARM/bin/../lib/gcc/arm-none-eabi/4.9.2/thumb/crtend.o

.got
 *(.got.plt)
 *(.got)
 *(.rel.got)

.ewram          0x0000000002032bd0        0x0
                0x0000000002032bd0                __ewram_start = ABSOLUTE (.)
 *(.ewram)
 *ewram.*(.text)
                0x0000000002032bd0                . = ALIGN (0x4)

.data           0x0000000002032bd0     0x2c0c
                0x0000000002032bd0                __data_start = ABSOLUTE (.)
 *(.data)
 .data          0x0000000002032bd0        0x0 /home/ulises/devkitPro/devkitARM/bin/../lib/gcc/arm-none-eabi/4.9.2/../../../../arm-none-eabi/lib/thumb/ds_arm9_crt0.o
 .data          0x0000000002032bd0        0x0 /home/ulises/devkitPro/devkitARM/bin/../lib/gcc/arm-none-eabi/4.9.2/thumb/crti.o
 .data          0x0000000002032bd0        0x4 /home/ulises/devkitPro/devkitARM/bin/../lib/gcc/arm-none-eabi/4.9.2/thumb/crtbegin.o
                0x0000000002032bd0                __dso_handle
 .data          0x0000000002032bd4       0x10 main.o
 .data          0x0000000002032be4        0x0 /home/ulises/Escritorio/dbz/nflib/lib/libnflib.a(nf_2d.o)
 .data          0x0000000002032be4        0x0 /home/ulises/Escritorio/dbz/nflib/lib/libnflib.a(nf_basic.o)
 .data          0x0000000002032be4        0x0 /home/ulises/Escritorio/dbz/nflib/lib/libnflib.a(nf_sound.o)
 .data          0x0000000002032be4        0x0 /home/ulises/Escritorio/dbz/nflib/lib/libnflib.a(nf_sprite256.o)
 .data          0x0000000002032be4        0x0 /home/ulises/Escritorio/dbz/nflib/lib/libnflib.a(nf_tiledbg.o)
 .data          0x0000000002032be4       0x74 /home/ulises/devkitPro/libnds/lib/libfilesystem.a(nitrofs.o)
                0x0000000002032be8                syspaths
                0x0000000002032bf0                nitroFSdevoptab
 .data          0x0000000002032c58        0x0 /home/ulises/devkitPro/libnds/lib/libfat.a(libfat.o)
 .data          0x0000000002032c58        0x0 /home/ulises/devkitPro/libnds/lib/libfat.a(partition.o)
 .data          0x0000000002032c58        0x0 /home/ulises/devkitPro/libnds/lib/libfat.a(lock.o)
 .data          0x0000000002032c58        0x0 /home/ulises/devkitPro/libnds/lib/libfat.a(fatdir.o)
 .data          0x0000000002032c58        0x0 /home/ulises/devkitPro/libnds/lib/libfat.a(cache.o)
 .data          0x0000000002032c58        0x0 /home/ulises/devkitPro/libnds/lib/libfat.a(fatfile.o)
 .data          0x0000000002032c58        0x0 /home/ulises/devkitPro/libnds/lib/libfat.a(disc.o)
 .data          0x0000000002032c58        0x0 /home/ulises/devkitPro/libnds/lib/libfat.a(file_allocation_table.o)
 .data          0x0000000002032c58        0x0 /home/ulises/devkitPro/libnds/lib/libfat.a(filetime.o)
 .data          0x0000000002032c58        0x0 /home/ulises/devkitPro/libnds/lib/libfat.a(directory.o)
 .data          0x0000000002032c58        0x3 /home/ulises/devkitPro/libnds/lib/libnds9.a(keys.o)
 *fill*         0x0000000002032c5b        0x1 ff
 .data          0x0000000002032c5c       0x30 /home/ulises/devkitPro/libnds/lib/libnds9.a(sprite.o)
                0x0000000002032c5c                oamMain
                0x0000000002032c74                oamSub
 .data          0x0000000002032c8c        0x0 /home/ulises/devkitPro/libnds/lib/libnds9.a(sound.o)
 .data          0x0000000002032c8c        0x0 /home/ulises/devkitPro/libnds/lib/libnds9.a(trig.o)
 .data          0x0000000002032c8c       0x64 /home/ulises/devkitPro/libnds/lib/libnds9.a(console.o)
                0x0000000002032c8c                currentConsole
                0x0000000002032c90                defaultConsole
 .data          0x0000000002032cf0        0x0 /home/ulises/devkitPro/libnds/lib/libnds9.a(sprite_alloc.o)
 .data          0x0000000002032cf0        0x0 /home/ulises/devkitPro/libnds/lib/libnds9.a(touch.o)
 .data          0x0000000002032cf0        0x0 /home/ulises/devkitPro/libnds/lib/libnds9.a(video.o)
 .data          0x0000000002032cf0       0x60 /home/ulises/devkitPro/libnds/lib/libnds9.a(background.o)
                0x0000000002032cf0                bgScrollTable
                0x0000000002032d10                bgTransform
                0x0000000002032d30                bgControl
 .data          0x0000000002032d50        0x4 /home/ulises/devkitPro/libnds/lib/libnds9.a(dldi.o)
                0x0000000002032d50                io_dldi_data
 .data          0x0000000002032d54        0x0 /home/ulises/devkitPro/libnds/lib/libnds9.a(dsi_sd.o)
 .data          0x0000000002032d54        0x0 /home/ulises/devkitPro/libnds/lib/libnds9.a(initSystem.o)
 .data          0x0000000002032d54       0x10 /home/ulises/devkitPro/libnds/lib/libnds9.a(fifosystem.o)
                0x0000000002032d54                fifo_buffer_free
                0x0000000002032d58                fifo_freewords
                0x0000000002032d5c                fifo_send_queue
                0x0000000002032d60                fifo_receive_queue
 .data          0x0000000002032d64        0x0 /home/ulises/devkitPro/libnds/lib/libnds9.a(card.o)
 .data          0x0000000002032d64        0x0 /home/ulises/devkitPro/libnds/lib/libnds9.a(libnds_exit.arm.o)
 .data          0x0000000002032d64        0x0 /home/ulises/devkitPro/libnds/lib/libnds9.a(interrupts.o)
 .data          0x0000000002032d64        0x0 /home/ulises/devkitPro/libnds/lib/libnds9.a(dcache.o)
 .data          0x0000000002032d64        0x0 /home/ulises/devkitPro/libnds/lib/libnds9.a(dldi_stub.o)
 .data          0x0000000002032d64        0x0 /home/ulises/devkitPro/libnds/lib/libnds9.a(mpu_setup.o)
 .data          0x0000000002032d64        0x0 /home/ulises/devkitPro/libnds/lib/libnds9.a(swiSoftReset.o)
 .data          0x0000000002032d64        0x0 /home/ulises/devkitPro/libnds/lib/libnds9.a(debugprint.o)
 .data          0x0000000002032d64        0x0 /home/ulises/devkitPro/libnds/lib/libnds9.a(biosCalls.o)
 .data          0x0000000002032d64        0x0 /home/ulises/devkitPro/libnds/lib/libnds9.a(interruptDispatcher.o)
 .data          0x0000000002032d64        0x0 /home/ulises/devkitPro/libnds/lib/libnds9.a(default_font.bin.o)
 .data          0x0000000002032d64        0x0 /home/ulises/devkitPro/libnds/lib/libnds9.a(system.o)
 .data          0x0000000002032d64        0x0 /home/ulises/devkitPro/libnds/lib/libnds9.a(timeSupport.o)
 .data          0x0000000002032d64        0x0 /home/ulises/devkitPro/devkitARM/bin/../lib/gcc/arm-none-eabi/4.9.2/thumb/libgcc.a(_udivsi3.o)
 .data          0x0000000002032d64        0x0 /home/ulises/devkitPro/devkitARM/bin/../lib/gcc/arm-none-eabi/4.9.2/thumb/libgcc.a(_divsi3.o)
 .data          0x0000000002032d64        0x0 /home/ulises/devkitPro/devkitARM/bin/../lib/gcc/arm-none-eabi/4.9.2/thumb/libgcc.a(_dvmd_tls.o)
 .data          0x0000000002032d64        0x0 /home/ulises/devkitPro/devkitARM/bin/../lib/gcc/arm-none-eabi/4.9.2/thumb/libgcc.a(_muldi3.o)
 .data          0x0000000002032d64        0x0 /home/ulises/devkitPro/devkitARM/bin/../lib/gcc/arm-none-eabi/4.9.2/../../../../arm-none-eabi/lib/thumb/libg.a(lib_a-bsearch.o)
 .data          0x0000000002032d64        0x0 /home/ulises/devkitPro/devkitARM/bin/../lib/gcc/arm-none-eabi/4.9.2/../../../../arm-none-eabi/lib/thumb/libg.a(lib_a-calloc.o)
 .data          0x0000000002032d64        0x0 /home/ulises/devkitPro/devkitARM/bin/../lib/gcc/arm-none-eabi/4.9.2/../../../../arm-none-eabi/lib/thumb/libg.a(lib_a-callocr.o)
 .data          0x0000000002032d64        0x0 /home/ulises/devkitPro/devkitARM/bin/../lib/gcc/arm-none-eabi/4.9.2/../../../../arm-none-eabi/lib/thumb/libg.a(lib_a-ctype_.o)
 .data          0x0000000002032d64        0x0 /home/ulises/devkitPro/devkitARM/bin/../lib/gcc/arm-none-eabi/4.9.2/../../../../arm-none-eabi/lib/thumb/libg.a(lib_a-fclose.o)
 .data          0x0000000002032d64        0x0 /home/ulises/devkitPro/devkitARM/bin/../lib/gcc/arm-none-eabi/4.9.2/../../../../arm-none-eabi/lib/thumb/libg.a(lib_a-fflush.o)
 .data          0x0000000002032d64        0x0 /home/ulises/devkitPro/devkitARM/bin/../lib/gcc/arm-none-eabi/4.9.2/../../../../arm-none-eabi/lib/thumb/libg.a(lib_a-findfp.o)
 .data          0x0000000002032d64        0x0 /home/ulises/devkitPro/devkitARM/bin/../lib/gcc/arm-none-eabi/4.9.2/../../../../arm-none-eabi/lib/thumb/libg.a(lib_a-fopen.o)
 .data          0x0000000002032d64        0x0 /home/ulises/devkitPro/devkitARM/bin/../lib/gcc/arm-none-eabi/4.9.2/../../../../arm-none-eabi/lib/thumb/libg.a(lib_a-fread.o)
 .data          0x0000000002032d64        0x0 /home/ulises/devkitPro/devkitARM/bin/../lib/gcc/arm-none-eabi/4.9.2/../../../../arm-none-eabi/lib/thumb/libg.a(lib_a-freer.o)
 .data          0x0000000002032d64        0x0 /home/ulises/devkitPro/devkitARM/bin/../lib/gcc/arm-none-eabi/4.9.2/../../../../arm-none-eabi/lib/thumb/libg.a(lib_a-fseek.o)
 .data          0x0000000002032d64        0x0 /home/ulises/devkitPro/devkitARM/bin/../lib/gcc/arm-none-eabi/4.9.2/../../../../arm-none-eabi/lib/thumb/libg.a(lib_a-fseeko.o)
 .data          0x0000000002032d64        0x0 /home/ulises/devkitPro/devkitARM/bin/../lib/gcc/arm-none-eabi/4.9.2/../../../../arm-none-eabi/lib/thumb/libg.a(lib_a-ftell.o)
 .data          0x0000000002032d64        0x0 /home/ulises/devkitPro/devkitARM/bin/../lib/gcc/arm-none-eabi/4.9.2/../../../../arm-none-eabi/lib/thumb/libg.a(lib_a-ftello.o)
 .data          0x0000000002032d64        0x0 /home/ulises/devkitPro/devkitARM/bin/../lib/gcc/arm-none-eabi/4.9.2/../../../../arm-none-eabi/lib/thumb/libg.a(lib_a-fwalk.o)
 .data          0x0000000002032d64        0x0 /home/ulises/devkitPro/devkitARM/bin/../lib/gcc/arm-none-eabi/4.9.2/../../../../arm-none-eabi/lib/thumb/libg.a(lib_a-impure.o)
 .data          0x0000000002032d64        0x0 /home/ulises/devkitPro/devkitARM/bin/../lib/gcc/arm-none-eabi/4.9.2/../../../../arm-none-eabi/lib/thumb/libg.a(lib_a-init.o)
 .data          0x0000000002032d64        0x0 /home/ulises/devkitPro/devkitARM/bin/../lib/gcc/arm-none-eabi/4.9.2/../../../../arm-none-eabi/lib/thumb/libg.a(lib_a-iprintf.o)
 .data          0x0000000002032d64        0x0 /home/ulises/devkitPro/devkitARM/bin/../lib/gcc/arm-none-eabi/4.9.2/../../../../arm-none-eabi/lib/thumb/libg.a(lib_a-lcltime_r.o)
 .data          0x0000000002032d64        0x0 /home/ulises/devkitPro/devkitARM/bin/../lib/gcc/arm-none-eabi/4.9.2/../../../../arm-none-eabi/lib/thumb/libg.a(lib_a-locale.o)
 .data          0x0000000002032d64        0x0 /home/ulises/devkitPro/devkitARM/bin/../lib/gcc/arm-none-eabi/4.9.2/../../../../arm-none-eabi/lib/thumb/libg.a(lib_a-makebuf.o)
 .data          0x0000000002032d64        0x0 /home/ulises/devkitPro/devkitARM/bin/../lib/gcc/arm-none-eabi/4.9.2/../../../../arm-none-eabi/lib/thumb/libg.a(lib_a-malloc.o)
 .data          0x0000000002032d64        0x0 /home/ulises/devkitPro/devkitARM/bin/../lib/gcc/arm-none-eabi/4.9.2/../../../../arm-none-eabi/lib/thumb/libg.a(lib_a-mallocr.o)
 .data          0x0000000002032d64        0x0 /home/ulises/devkitPro/devkitARM/bin/../lib/gcc/arm-none-eabi/4.9.2/../../../../arm-none-eabi/lib/thumb/libg.a(lib_a-mbrtowc.o)
 .data          0x0000000002032d64        0x0 /home/ulises/devkitPro/devkitARM/bin/../lib/gcc/arm-none-eabi/4.9.2/../../../../arm-none-eabi/lib/thumb/libg.a(lib_a-mbsrtowcs.o)
 .data          0x0000000002032d64        0x0 /home/ulises/devkitPro/devkitARM/bin/../lib/gcc/arm-none-eabi/4.9.2/../../../../arm-none-eabi/lib/thumb/libg.a(lib_a-mbtowc_r.o)
 .data          0x0000000002032d64        0x0 /home/ulises/devkitPro/devkitARM/bin/../lib/gcc/arm-none-eabi/4.9.2/../../../../arm-none-eabi/lib/thumb/libg.a(lib_a-memcmp.o)
 .data          0x0000000002032d64        0x0 /home/ulises/devkitPro/devkitARM/bin/../lib/gcc/arm-none-eabi/4.9.2/../../../../arm-none-eabi/lib/thumb/libg.a(lib_a-memcpy.o)
 .data          0x0000000002032d64        0x0 /home/ulises/devkitPro/devkitARM/bin/../lib/gcc/arm-none-eabi/4.9.2/../../../../arm-none-eabi/lib/thumb/libg.a(lib_a-memmove.o)
 .data          0x0000000002032d64        0x0 /home/ulises/devkitPro/devkitARM/bin/../lib/gcc/arm-none-eabi/4.9.2/../../../../arm-none-eabi/lib/thumb/libg.a(lib_a-memset.o)
 .data          0x0000000002032d64        0x0 /home/ulises/devkitPro/devkitARM/bin/../lib/gcc/arm-none-eabi/4.9.2/../../../../arm-none-eabi/lib/thumb/libg.a(lib_a-mktime.o)
 .data          0x0000000002032d64        0x0 /home/ulises/devkitPro/devkitARM/bin/../lib/gcc/arm-none-eabi/4.9.2/../../../../arm-none-eabi/lib/thumb/libg.a(lib_a-mlock.o)
 .data          0x0000000002032d64        0x0 /home/ulises/devkitPro/devkitARM/bin/../lib/gcc/arm-none-eabi/4.9.2/../../../../arm-none-eabi/lib/thumb/libg.a(lib_a-month_lengths.o)
 .data          0x0000000002032d64        0x0 /home/ulises/devkitPro/devkitARM/bin/../lib/gcc/arm-none-eabi/4.9.2/../../../../arm-none-eabi/lib/thumb/libg.a(lib_a-realloc.o)
 .data          0x0000000002032d64        0x0 /home/ulises/devkitPro/devkitARM/bin/../lib/gcc/arm-none-eabi/4.9.2/../../../../arm-none-eabi/lib/thumb/libg.a(lib_a-reallocr.o)
 .data          0x0000000002032d64        0x0 /home/ulises/devkitPro/devkitARM/bin/../lib/gcc/arm-none-eabi/4.9.2/../../../../arm-none-eabi/lib/thumb/libg.a(lib_a-refill.o)
 .data          0x0000000002032d64        0x0 /home/ulises/devkitPro/devkitARM/bin/../lib/gcc/arm-none-eabi/4.9.2/../../../../arm-none-eabi/lib/thumb/libg.a(lib_a-rewind.o)
 .data          0x0000000002032d64        0x0 /home/ulises/devkitPro/devkitARM/bin/../lib/gcc/arm-none-eabi/4.9.2/../../../../arm-none-eabi/lib/thumb/libg.a(lib_a-setvbuf.o)
 .data          0x0000000002032d64        0x0 /home/ulises/devkitPro/devkitARM/bin/../lib/gcc/arm-none-eabi/4.9.2/../../../../arm-none-eabi/lib/thumb/libg.a(lib_a-siscanf.o)
 .data          0x0000000002032d64        0x0 /home/ulises/devkitPro/devkitARM/bin/../lib/gcc/arm-none-eabi/4.9.2/../../../../arm-none-eabi/lib/thumb/libg.a(lib_a-sprintf.o)
 .data          0x0000000002032d64        0x0 /home/ulises/devkitPro/devkitARM/bin/../lib/gcc/arm-none-eabi/4.9.2/../../../../arm-none-eabi/lib/thumb/libg.a(lib_a-stdio.o)
 .data          0x0000000002032d64        0x0 /home/ulises/devkitPro/devkitARM/bin/../lib/gcc/arm-none-eabi/4.9.2/../../../../arm-none-eabi/lib/thumb/libg.a(lib_a-stpcpy.o)
 .data          0x0000000002032d64        0x0 /home/ulises/devkitPro/devkitARM/bin/../lib/gcc/arm-none-eabi/4.9.2/../../../../arm-none-eabi/lib/thumb/libg.a(lib_a-strcasecmp.o)
 .data          0x0000000002032d64        0x0 /home/ulises/devkitPro/devkitARM/bin/../lib/gcc/arm-none-eabi/4.9.2/../../../../arm-none-eabi/lib/thumb/libg.a(lib_a-strcat.o)
 .data          0x0000000002032d64        0x0 /home/ulises/devkitPro/devkitARM/bin/../lib/gcc/arm-none-eabi/4.9.2/../../../../arm-none-eabi/lib/thumb/libg.a(lib_a-strchr.o)
 .data          0x0000000002032d64        0x0 /home/ulises/devkitPro/devkitARM/bin/../lib/gcc/arm-none-eabi/4.9.2/../../../../arm-none-eabi/lib/thumb/libg.a(lib_a-strcmp.o)
 .data          0x0000000002032d64        0x0 /home/ulises/devkitPro/devkitARM/bin/../lib/gcc/arm-none-eabi/4.9.2/../../../../arm-none-eabi/lib/thumb/libg.a(lib_a-strcpy.o)
 .data          0x0000000002032d64        0x0 /home/ulises/devkitPro/devkitARM/bin/../lib/gcc/arm-none-eabi/4.9.2/../../../../arm-none-eabi/lib/thumb/libg.a(lib_a-strdup.o)
 .data          0x0000000002032d64        0x0 /home/ulises/devkitPro/devkitARM/bin/../lib/gcc/arm-none-eabi/4.9.2/../../../../arm-none-eabi/lib/thumb/libg.a(lib_a-strdup_r.o)
 .data          0x0000000002032d64        0x0 /home/ulises/devkitPro/devkitARM/bin/../lib/gcc/arm-none-eabi/4.9.2/../../../../arm-none-eabi/lib/thumb/libg.a(lib_a-strlcpy.o)
 .data          0x0000000002032d64        0x0 /home/ulises/devkitPro/devkitARM/bin/../lib/gcc/arm-none-eabi/4.9.2/../../../../arm-none-eabi/lib/thumb/libg.a(lib_a-strlen.o)
 .data          0x0000000002032d64        0x0 /home/ulises/devkitPro/devkitARM/bin/../lib/gcc/arm-none-eabi/4.9.2/../../../../arm-none-eabi/lib/thumb/libg.a(lib_a-strncasecmp.o)
 .data          0x0000000002032d64        0x0 /home/ulises/devkitPro/devkitARM/bin/../lib/gcc/arm-none-eabi/4.9.2/../../../../arm-none-eabi/lib/thumb/libg.a(lib_a-strncmp.o)
 .data          0x0000000002032d64        0x0 /home/ulises/devkitPro/devkitARM/bin/../lib/gcc/arm-none-eabi/4.9.2/../../../../arm-none-eabi/lib/thumb/libg.a(lib_a-strncpy.o)
 .data          0x0000000002032d64        0x0 /home/ulises/devkitPro/devkitARM/bin/../lib/gcc/arm-none-eabi/4.9.2/../../../../arm-none-eabi/lib/thumb/libg.a(lib_a-strnlen.o)
 .data          0x0000000002032d64        0x0 /home/ulises/devkitPro/devkitARM/bin/../lib/gcc/arm-none-eabi/4.9.2/../../../../arm-none-eabi/lib/thumb/libg.a(lib_a-strpbrk.o)
 .data          0x0000000002032d64        0x0 /home/ulises/devkitPro/devkitARM/bin/../lib/gcc/arm-none-eabi/4.9.2/../../../../arm-none-eabi/lib/thumb/libg.a(lib_a-strrchr.o)
 .data          0x0000000002032d64        0x0 /home/ulises/devkitPro/devkitARM/bin/../lib/gcc/arm-none-eabi/4.9.2/../../../../arm-none-eabi/lib/thumb/libg.a(lib_a-strtol.o)
 .data          0x0000000002032d64        0x0 /home/ulises/devkitPro/devkitARM/bin/../lib/gcc/arm-none-eabi/4.9.2/../../../../arm-none-eabi/lib/thumb/libg.a(lib_a-svfiscanf.o)
 .data          0x0000000002032d64        0x0 /home/ulises/devkitPro/devkitARM/bin/../lib/gcc/arm-none-eabi/4.9.2/../../../../arm-none-eabi/lib/thumb/libg.a(lib_a-svfprintf.o)
 .data          0x0000000002032d64        0x0 /home/ulises/devkitPro/devkitARM/bin/../lib/gcc/arm-none-eabi/4.9.2/../../../../arm-none-eabi/lib/thumb/libg.a(lib_a-sysclose.o)
 .data          0x0000000002032d64        0x0 /home/ulises/devkitPro/devkitARM/bin/../lib/gcc/arm-none-eabi/4.9.2/../../../../arm-none-eabi/lib/thumb/libg.a(lib_a-syslseek.o)
 .data          0x0000000002032d64        0x0 /home/ulises/devkitPro/devkitARM/bin/../lib/gcc/arm-none-eabi/4.9.2/../../../../arm-none-eabi/lib/thumb/libg.a(lib_a-sysopen.o)
 .data          0x0000000002032d64        0x0 /home/ulises/devkitPro/devkitARM/bin/../lib/gcc/arm-none-eabi/4.9.2/../../../../arm-none-eabi/lib/thumb/libg.a(lib_a-sysread.o)
 .data          0x0000000002032d64        0x0 /home/ulises/devkitPro/devkitARM/bin/../lib/gcc/arm-none-eabi/4.9.2/../../../../arm-none-eabi/lib/thumb/libg.a(lib_a-time.o)
 .data          0x0000000002032d64        0x0 /home/ulises/devkitPro/devkitARM/bin/../lib/gcc/arm-none-eabi/4.9.2/../../../../arm-none-eabi/lib/thumb/libg.a(lib_a-towlower.o)
 .data          0x0000000002032d64        0x0 /home/ulises/devkitPro/devkitARM/bin/../lib/gcc/arm-none-eabi/4.9.2/../../../../arm-none-eabi/lib/thumb/libg.a(lib_a-towupper.o)
 .data          0x0000000002032d64        0x0 /home/ulises/devkitPro/devkitARM/bin/../lib/gcc/arm-none-eabi/4.9.2/../../../../arm-none-eabi/lib/thumb/libg.a(lib_a-tzcalc_limits.o)
 .data          0x0000000002032d64        0x0 /home/ulises/devkitPro/devkitARM/bin/../lib/gcc/arm-none-eabi/4.9.2/../../../../arm-none-eabi/lib/thumb/libg.a(lib_a-tzlock.o)
 .data          0x0000000002032d64        0x0 /home/ulises/devkitPro/devkitARM/bin/../lib/gcc/arm-none-eabi/4.9.2/../../../../arm-none-eabi/lib/thumb/libg.a(lib_a-tzvars.o)
 .data          0x0000000002032d64        0x0 /home/ulises/devkitPro/devkitARM/bin/../lib/gcc/arm-none-eabi/4.9.2/../../../../arm-none-eabi/lib/thumb/libg.a(lib_a-ungetc.o)
 .data          0x0000000002032d64        0x0 /home/ulises/devkitPro/devkitARM/bin/../lib/gcc/arm-none-eabi/4.9.2/../../../../arm-none-eabi/lib/thumb/libg.a(lib_a-vfiprintf.o)
 .data          0x0000000002032d64        0x0 /home/ulises/devkitPro/devkitARM/bin/../lib/gcc/arm-none-eabi/4.9.2/../../../../arm-none-eabi/lib/thumb/libg.a(lib_a-wcrtomb.o)
 .data          0x0000000002032d64        0x0 /home/ulises/devkitPro/devkitARM/bin/../lib/gcc/arm-none-eabi/4.9.2/../../../../arm-none-eabi/lib/thumb/libg.a(lib_a-wcsrtombs.o)
 .data          0x0000000002032d64        0x0 /home/ulises/devkitPro/devkitARM/bin/../lib/gcc/arm-none-eabi/4.9.2/../../../../arm-none-eabi/lib/thumb/libg.a(lib_a-wctob.o)
 .data          0x0000000002032d64        0x0 /home/ulises/devkitPro/devkitARM/bin/../lib/gcc/arm-none-eabi/4.9.2/../../../../arm-none-eabi/lib/thumb/libg.a(lib_a-wctomb_r.o)
 .data          0x0000000002032d64        0x0 /home/ulises/devkitPro/devkitARM/bin/../lib/gcc/arm-none-eabi/4.9.2/../../../../arm-none-eabi/lib/thumb/libg.a(lib_a-wsetup.o)
 .data          0x0000000002032d64        0x0 /home/ulises/devkitPro/devkitARM/bin/../lib/gcc/arm-none-eabi/4.9.2/../../../../arm-none-eabi/lib/thumb/libg.a(lib_a-div.o)
 .data          0x0000000002032d64        0x0 /home/ulises/devkitPro/devkitARM/bin/../lib/gcc/arm-none-eabi/4.9.2/../../../../arm-none-eabi/lib/thumb/libg.a(lib_a-dtoa.o)
 .data          0x0000000002032d64        0x0 /home/ulises/devkitPro/devkitARM/bin/../lib/gcc/arm-none-eabi/4.9.2/../../../../arm-none-eabi/lib/thumb/libg.a(lib_a-flags.o)
 .data          0x0000000002032d64        0x0 /home/ulises/devkitPro/devkitARM/bin/../lib/gcc/arm-none-eabi/4.9.2/../../../../arm-none-eabi/lib/thumb/libg.a(lib_a-fputwc.o)
 .data          0x0000000002032d64        0x0 /home/ulises/devkitPro/devkitARM/bin/../lib/gcc/arm-none-eabi/4.9.2/../../../../arm-none-eabi/lib/thumb/libg.a(lib_a-fvwrite.o)
 .data          0x0000000002032d64        0x0 /home/ulises/devkitPro/devkitARM/bin/../lib/gcc/arm-none-eabi/4.9.2/../../../../arm-none-eabi/lib/thumb/libg.a(lib_a-getenv_r.o)
 .data          0x0000000002032d64        0x0 /home/ulises/devkitPro/devkitARM/bin/../lib/gcc/arm-none-eabi/4.9.2/../../../../arm-none-eabi/lib/thumb/libg.a(lib_a-gettzinfo.o)
 .data          0x0000000002032d64        0x0 /home/ulises/devkitPro/devkitARM/bin/../lib/gcc/arm-none-eabi/4.9.2/../../../../arm-none-eabi/lib/thumb/libg.a(lib_a-gmtime_r.o)
 .data          0x0000000002032d64        0x0 /home/ulises/devkitPro/devkitARM/bin/../lib/gcc/arm-none-eabi/4.9.2/../../../../arm-none-eabi/lib/thumb/libg.a(lib_a-iswspace.o)
 .data          0x0000000002032d64        0x0 /home/ulises/devkitPro/devkitARM/bin/../lib/gcc/arm-none-eabi/4.9.2/../../../../arm-none-eabi/lib/thumb/libg.a(lib_a-jp2uc.o)
 .data          0x0000000002032d64        0x0 /home/ulises/devkitPro/devkitARM/bin/../lib/gcc/arm-none-eabi/4.9.2/../../../../arm-none-eabi/lib/thumb/libg.a(lib_a-mbsnrtowcs.o)
 .data          0x0000000002032d64        0x0 /home/ulises/devkitPro/devkitARM/bin/../lib/gcc/arm-none-eabi/4.9.2/../../../../arm-none-eabi/lib/thumb/libg.a(lib_a-memchr.o)
 .data          0x0000000002032d64        0x0 /home/ulises/devkitPro/devkitARM/bin/../lib/gcc/arm-none-eabi/4.9.2/../../../../arm-none-eabi/lib/thumb/libg.a(lib_a-mprec.o)
 .data          0x0000000002032d64        0x0 /home/ulises/devkitPro/devkitARM/bin/../lib/gcc/arm-none-eabi/4.9.2/../../../../arm-none-eabi/lib/thumb/libg.a(lib_a-sccl.o)
 .data          0x0000000002032d64        0x0 /home/ulises/devkitPro/devkitARM/bin/../lib/gcc/arm-none-eabi/4.9.2/../../../../arm-none-eabi/lib/thumb/libg.a(lib_a-s_fpclassify.o)
 .data          0x0000000002032d64        0x0 /home/ulises/devkitPro/devkitARM/bin/../lib/gcc/arm-none-eabi/4.9.2/../../../../arm-none-eabi/lib/thumb/libg.a(lib_a-s_frexp.o)
 .data          0x0000000002032d64        0x0 /home/ulises/devkitPro/devkitARM/bin/../lib/gcc/arm-none-eabi/4.9.2/../../../../arm-none-eabi/lib/thumb/libg.a(lib_a-strtoll_r.o)
 .data          0x0000000002032d64        0x0 /home/ulises/devkitPro/devkitARM/bin/../lib/gcc/arm-none-eabi/4.9.2/../../../../arm-none-eabi/lib/thumb/libg.a(lib_a-strtoull_r.o)
 .data          0x0000000002032d64        0x0 /home/ulises/devkitPro/devkitARM/bin/../lib/gcc/arm-none-eabi/4.9.2/../../../../arm-none-eabi/lib/thumb/libg.a(lib_a-strtoul.o)
 .data          0x0000000002032d64        0x0 /home/ulises/devkitPro/devkitARM/bin/../lib/gcc/arm-none-eabi/4.9.2/../../../../arm-none-eabi/lib/thumb/libg.a(lib_a-svfiprintf.o)
 .data          0x0000000002032d64        0x0 /home/ulises/devkitPro/devkitARM/bin/../lib/gcc/arm-none-eabi/4.9.2/../../../../arm-none-eabi/lib/thumb/libg.a(lib_a-wbuf.o)
 .data          0x0000000002032d64        0x0 /home/ulises/devkitPro/devkitARM/bin/../lib/gcc/arm-none-eabi/4.9.2/../../../../arm-none-eabi/lib/thumb/libg.a(lib_a-wcsnrtombs.o)
 .data          0x0000000002032d64        0x0 /home/ulises/devkitPro/devkitARM/bin/../lib/gcc/arm-none-eabi/4.9.2/../../../../arm-none-eabi/lib/thumb/libg.a(lib_a-environ.o)
 .data          0x0000000002032d64        0x0 /home/ulises/devkitPro/devkitARM/bin/../lib/gcc/arm-none-eabi/4.9.2/../../../../arm-none-eabi/lib/thumb/libg.a(lib_a-envlock.o)
 .data          0x0000000002032d64       0x44 /home/ulises/devkitPro/devkitARM/bin/../lib/gcc/arm-none-eabi/4.9.2/../../../../arm-none-eabi/lib/thumb/libsysbase.a(iosupport.o)
                0x0000000002032d68                devoptab_list
 .data          0x0000000002032da8        0x0 /home/ulises/devkitPro/devkitARM/bin/../lib/gcc/arm-none-eabi/4.9.2/../../../../arm-none-eabi/lib/thumb/libsysbase.a(close.o)
 .data          0x0000000002032da8        0x0 /home/ulises/devkitPro/devkitARM/bin/../lib/gcc/arm-none-eabi/4.9.2/../../../../arm-none-eabi/lib/thumb/libsysbase.a(fstat.o)
 .data          0x0000000002032da8        0x0 /home/ulises/devkitPro/devkitARM/bin/../lib/gcc/arm-none-eabi/4.9.2/../../../../arm-none-eabi/lib/thumb/libsysbase.a(gettod.o)
 .data          0x0000000002032da8        0x0 /home/ulises/devkitPro/devkitARM/bin/../lib/gcc/arm-none-eabi/4.9.2/../../../../arm-none-eabi/lib/thumb/libsysbase.a(isatty.o)
 .data          0x0000000002032da8        0x0 /home/ulises/devkitPro/devkitARM/bin/../lib/gcc/arm-none-eabi/4.9.2/../../../../arm-none-eabi/lib/thumb/libsysbase.a(lseek.o)
 .data          0x0000000002032da8        0x0 /home/ulises/devkitPro/devkitARM/bin/../lib/gcc/arm-none-eabi/4.9.2/../../../../arm-none-eabi/lib/thumb/libsysbase.a(open.o)
 .data          0x0000000002032da8        0x0 /home/ulises/devkitPro/devkitARM/bin/../lib/gcc/arm-none-eabi/4.9.2/../../../../arm-none-eabi/lib/thumb/libsysbase.a(read.o)
 .data          0x0000000002032da8        0x0 /home/ulises/devkitPro/devkitARM/bin/../lib/gcc/arm-none-eabi/4.9.2/../../../../arm-none-eabi/lib/thumb/libsysbase.a(sbrk.o)
 .data          0x0000000002032da8        0x0 /home/ulises/devkitPro/devkitARM/bin/../lib/gcc/arm-none-eabi/4.9.2/../../../../arm-none-eabi/lib/thumb/libsysbase.a(write.o)
 .data          0x0000000002032da8        0x0 /home/ulises/devkitPro/devkitARM/bin/../lib/gcc/arm-none-eabi/4.9.2/../../../../arm-none-eabi/lib/thumb/libsysbase.a(malloc_vars.o)
 .data          0x0000000002032da8     0x1000 /home/ulises/devkitPro/devkitARM/bin/../lib/gcc/arm-none-eabi/4.9.2/../../../../arm-none-eabi/lib/thumb/libsysbase.a(chdir.o)
 .data          0x0000000002033da8        0x0 /home/ulises/devkitPro/devkitARM/bin/../lib/gcc/arm-none-eabi/4.9.2/../../../../arm-none-eabi/lib/thumb/libsysbase.a(build_argv.o)
 .data          0x0000000002033da8        0x0 /home/ulises/devkitPro/devkitARM/bin/../lib/gcc/arm-none-eabi/4.9.2/../../../../arm-none-eabi/lib/thumb/libsysbase.a(flock.o)
 .data          0x0000000002033da8        0x0 /home/ulises/devkitPro/devkitARM/bin/../lib/gcc/arm-none-eabi/4.9.2/../../../../arm-none-eabi/lib/thumb/libsysbase.a(syscall_support.o)
 .data          0x0000000002033da8     0x1024 /home/ulises/devkitPro/devkitARM/bin/../lib/gcc/arm-none-eabi/4.9.2/../../../../arm-none-eabi/lib/thumb/libsysbase.a(handle_manager.o)
 .data          0x0000000002034dcc        0x0 /home/ulises/devkitPro/devkitARM/bin/../lib/gcc/arm-none-eabi/4.9.2/../../../../arm-none-eabi/lib/thumb/libsysbase.a(getreent.o)
 .data          0x0000000002034dcc        0x0 /home/ulises/devkitPro/devkitARM/bin/../lib/gcc/arm-none-eabi/4.9.2/thumb/libgcc.a(_arm_addsubdf3.o)
 .data          0x0000000002034dcc        0x0 /home/ulises/devkitPro/devkitARM/bin/../lib/gcc/arm-none-eabi/4.9.2/thumb/libgcc.a(_arm_muldivdf3.o)
 .data          0x0000000002034dcc        0x0 /home/ulises/devkitPro/devkitARM/bin/../lib/gcc/arm-none-eabi/4.9.2/thumb/libgcc.a(_arm_cmpdf2.o)
 .data          0x0000000002034dcc        0x0 /home/ulises/devkitPro/devkitARM/bin/../lib/gcc/arm-none-eabi/4.9.2/thumb/libgcc.a(_arm_fixdfsi.o)
 .data          0x0000000002034dcc        0x0 /home/ulises/devkitPro/devkitARM/bin/../lib/gcc/arm-none-eabi/4.9.2/thumb/libgcc.a(_aeabi_uldivmod.o)
 .data          0x0000000002034dcc        0x0 /home/ulises/devkitPro/devkitARM/bin/../lib/gcc/arm-none-eabi/4.9.2/thumb/libgcc.a(bpabi.o)
 .data          0x0000000002034dcc        0x0 /home/ulises/devkitPro/devkitARM/bin/../lib/gcc/arm-none-eabi/4.9.2/thumb/libgcc.a(_divdi3.o)
 .data          0x0000000002034dcc        0x0 /home/ulises/devkitPro/devkitARM/bin/../lib/gcc/arm-none-eabi/4.9.2/thumb/libgcc.a(_udivdi3.o)
 .data          0x0000000002034dcc        0x0 /home/ulises/devkitPro/devkitARM/bin/../lib/gcc/arm-none-eabi/4.9.2/thumb/libgcc.a(_clzdi2.o)
 .data          0x0000000002034dcc        0x0 /home/ulises/devkitPro/devkitARM/bin/../lib/gcc/arm-none-eabi/4.9.2/thumb/libgcc.a(_clzsi2.o)
 .data          0x0000000002034dcc        0x0 /home/ulises/devkitPro/devkitARM/bin/../lib/gcc/arm-none-eabi/4.9.2/../../../../arm-none-eabi/lib/thumb/libg.a(lib_a-errno.o)
 .data          0x0000000002034dcc        0x0 /home/ulises/devkitPro/devkitARM/bin/../lib/gcc/arm-none-eabi/4.9.2/thumb/crtend.o
 .data          0x0000000002034dcc        0x0 /home/ulises/devkitPro/devkitARM/bin/../lib/gcc/arm-none-eabi/4.9.2/thumb/crtn.o
 *(.data.*)
 .data.__ctype_ptr__
                0x0000000002034dcc        0x4 /home/ulises/devkitPro/devkitARM/bin/../lib/gcc/arm-none-eabi/4.9.2/../../../../arm-none-eabi/lib/thumb/libg.a(lib_a-ctype_.o)
                0x0000000002034dcc                __ctype_ptr__
 .data.impure_data
                0x0000000002034dd0      0x428 /home/ulises/devkitPro/devkitARM/bin/../lib/gcc/arm-none-eabi/4.9.2/../../../../arm-none-eabi/lib/thumb/libg.a(lib_a-impure.o)
 .data._impure_ptr
                0x00000000020351f8        0x4 /home/ulises/devkitPro/devkitARM/bin/../lib/gcc/arm-none-eabi/4.9.2/../../../../arm-none-eabi/lib/thumb/libg.a(lib_a-impure.o)
                0x00000000020351f8                _impure_ptr
 .data.lc_message_charset
                0x00000000020351fc       0x20 /home/ulises/devkitPro/devkitARM/bin/../lib/gcc/arm-none-eabi/4.9.2/../../../../arm-none-eabi/lib/thumb/libg.a(lib_a-locale.o)
 .data.lconv    0x000000000203521c       0x38 /home/ulises/devkitPro/devkitARM/bin/../lib/gcc/arm-none-eabi/4.9.2/../../../../arm-none-eabi/lib/thumb/libg.a(lib_a-locale.o)
 .data.current_categories
                0x0000000002035254       0xe0 /home/ulises/devkitPro/devkitARM/bin/../lib/gcc/arm-none-eabi/4.9.2/../../../../arm-none-eabi/lib/thumb/libg.a(lib_a-locale.o)
 .data.lc_ctype_charset
                0x0000000002035334       0x20 /home/ulises/devkitPro/devkitARM/bin/../lib/gcc/arm-none-eabi/4.9.2/../../../../arm-none-eabi/lib/thumb/libg.a(lib_a-locale.o)
 .data.__default_locale
                0x0000000002035354       0x20 /home/ulises/devkitPro/devkitARM/bin/../lib/gcc/arm-none-eabi/4.9.2/../../../../arm-none-eabi/lib/thumb/libg.a(lib_a-locale.o)
                0x0000000002035354                __default_locale
 .data.__mb_cur_max
                0x0000000002035374        0x4 /home/ulises/devkitPro/devkitARM/bin/../lib/gcc/arm-none-eabi/4.9.2/../../../../arm-none-eabi/lib/thumb/libg.a(lib_a-locale.o)
                0x0000000002035374                __mb_cur_max
 .data.__malloc_av_
                0x0000000002035378      0x408 /home/ulises/devkitPro/devkitARM/bin/../lib/gcc/arm-none-eabi/4.9.2/../../../../arm-none-eabi/lib/thumb/libg.a(lib_a-mallocr.o)
                0x0000000002035378                __malloc_av_
 .data.__malloc_trim_threshold
                0x0000000002035780        0x4 /home/ulises/devkitPro/devkitARM/bin/../lib/gcc/arm-none-eabi/4.9.2/../../../../arm-none-eabi/lib/thumb/libg.a(lib_a-mallocr.o)
                0x0000000002035780                __malloc_trim_threshold
 .data.__malloc_sbrk_base
                0x0000000002035784        0x4 /home/ulises/devkitPro/devkitARM/bin/../lib/gcc/arm-none-eabi/4.9.2/../../../../arm-none-eabi/lib/thumb/libg.a(lib_a-mallocr.o)
                0x0000000002035784                __malloc_sbrk_base
 .data.__mbtowc
                0x0000000002035788        0x4 /home/ulises/devkitPro/devkitARM/bin/../lib/gcc/arm-none-eabi/4.9.2/../../../../arm-none-eabi/lib/thumb/libg.a(lib_a-mbtowc_r.o)
                0x0000000002035788                __mbtowc
 .data._tzname  0x000000000203578c        0x8 /home/ulises/devkitPro/devkitARM/bin/../lib/gcc/arm-none-eabi/4.9.2/../../../../arm-none-eabi/lib/thumb/libg.a(lib_a-tzvars.o)
                0x000000000203578c                _tzname
 .data.__wctomb
                0x0000000002035794        0x4 /home/ulises/devkitPro/devkitARM/bin/../lib/gcc/arm-none-eabi/4.9.2/../../../../arm-none-eabi/lib/thumb/libg.a(lib_a-wctomb_r.o)
                0x0000000002035794                __wctomb
 .data.tzinfo   0x0000000002035798       0x40 /home/ulises/devkitPro/devkitARM/bin/../lib/gcc/arm-none-eabi/4.9.2/../../../../arm-none-eabi/lib/thumb/libg.a(lib_a-gettzinfo.o)
 .data.environ  0x00000000020357d8        0x4 /home/ulises/devkitPro/devkitARM/bin/../lib/gcc/arm-none-eabi/4.9.2/../../../../arm-none-eabi/lib/thumb/libg.a(lib_a-environ.o)
                0x00000000020357d8                environ
 *(.gnu.linkonce.d*)
                0x00000000020357dc                . = ALIGN (0x4)
                0x00000000020357dc                __data_end = ABSOLUTE (.)
                0x00000000020357dc                __dtcm_lma = .
                0x00000000020357dc                __bss_vma = .

.igot.plt       0x00000000020357dc        0x0
 .igot.plt      0x00000000020357dc        0x0 /home/ulises/devkitPro/devkitARM/bin/../lib/gcc/arm-none-eabi/4.9.2/../../../../arm-none-eabi/lib/thumb/ds_arm9_crt0.o

.tm_clone_table
                0x00000000020357dc        0x0
 .tm_clone_table
                0x00000000020357dc        0x0 /home/ulises/devkitPro/devkitARM/bin/../lib/gcc/arm-none-eabi/4.9.2/thumb/crtbegin.o
 .tm_clone_table
                0x00000000020357dc        0x0 /home/ulises/devkitPro/devkitARM/bin/../lib/gcc/arm-none-eabi/4.9.2/thumb/crtend.o

.dtcm           0x000000000b000000        0x0 load address 0x00000000020357dc
 *(.dtcm)
 *(.dtcm.*)
                0x000000000b000000                . = ALIGN (0x4)
                0x000000000b000000                __dtcm_end = ABSOLUTE (.)
                0x00000000020357dc                __itcm_lma = (__dtcm_lma + SIZEOF (.dtcm))

.itcm           0x0000000001000100      0x194 load address 0x00000000020357dc
 *(.itcm)
 .itcm          0x0000000001000100       0xc8 /home/ulises/devkitPro/libnds/lib/libnds9.a(interrupts.o)
                0x0000000001000100                irqTable
 .itcm          0x00000000010001c8       0xcc /home/ulises/devkitPro/libnds/lib/libnds9.a(interruptDispatcher.o)
                0x00000000010001c8                IntrMain
 *itcm.*(.text)
                0x0000000001000294                . = ALIGN (0x4)
                0x0000000001000294                __itcm_end = ABSOLUTE (.)
                0x0000000002035970                __vectors_lma = (__itcm_lma + SIZEOF (.itcm))

.vectors        0x0000000001000000        0x0 load address 0x0000000002035970
 *(.vectors)
 *vectors.*(.text)
                0x0000000001000000                . = ALIGN (0x4)
                0x0000000001000000                __vectors_end = ABSOLUTE (.)

.sbss           0x000000000b000000        0x0
                0x000000000b000000                __sbss_start = ABSOLUTE (.)
                0x000000000b000000                __sbss_start__ = ABSOLUTE (.)
 *(.sbss)
                0x000000000b000000                . = ALIGN (0x4)
                0x000000000b000000                __sbss_end = ABSOLUTE (.)

.bss            0x00000000020357dc     0x8ddc
                0x00000000020357dc                __bss_start = ABSOLUTE (.)
                0x00000000020357dc                __bss_start__ = ABSOLUTE (.)
 *(.dynbss)
 *(.gnu.linkonce.b*)
 *(.bss*)
 .bss           0x00000000020357dc        0x0 /home/ulises/devkitPro/devkitARM/bin/../lib/gcc/arm-none-eabi/4.9.2/../../../../arm-none-eabi/lib/thumb/ds_arm9_crt0.o
 .bss           0x00000000020357dc        0x0 /home/ulises/devkitPro/devkitARM/bin/../lib/gcc/arm-none-eabi/4.9.2/thumb/crti.o
 .bss           0x00000000020357dc       0x1c /home/ulises/devkitPro/devkitARM/bin/../lib/gcc/arm-none-eabi/4.9.2/thumb/crtbegin.o
 .bss           0x00000000020357f8        0x8 main.o
 .bss           0x0000000002035800        0x0 /home/ulises/Escritorio/dbz/nflib/lib/libnflib.a(nf_2d.o)
 .bss           0x0000000002035800        0x0 /home/ulises/Escritorio/dbz/nflib/lib/libnflib.a(nf_basic.o)
 .bss           0x0000000002035800        0x0 /home/ulises/Escritorio/dbz/nflib/lib/libnflib.a(nf_sound.o)
 .bss           0x0000000002035800        0x0 /home/ulises/Escritorio/dbz/nflib/lib/libnflib.a(nf_sprite256.o)
 .bss           0x0000000002035800        0x0 /home/ulises/Escritorio/dbz/nflib/lib/libnflib.a(nf_tiledbg.o)
 .bss           0x0000000002035800      0x214 /home/ulises/devkitPro/libnds/lib/libfilesystem.a(nitrofs.o)
 .bss           0x0000000002035a14        0x0 /home/ulises/devkitPro/libnds/lib/libfat.a(libfat.o)
 .bss           0x0000000002035a14        0x0 /home/ulises/devkitPro/libnds/lib/libfat.a(partition.o)
 .bss           0x0000000002035a14        0x0 /home/ulises/devkitPro/libnds/lib/libfat.a(lock.o)
 .bss           0x0000000002035a14        0x0 /home/ulises/devkitPro/libnds/lib/libfat.a(fatdir.o)
 .bss           0x0000000002035a14        0x4 /home/ulises/devkitPro/libnds/lib/libfat.a(cache.o)
 .bss           0x0000000002035a18        0x0 /home/ulises/devkitPro/libnds/lib/libfat.a(fatfile.o)
 .bss           0x0000000002035a18        0x0 /home/ulises/devkitPro/libnds/lib/libfat.a(disc.o)
 .bss           0x0000000002035a18        0x0 /home/ulises/devkitPro/libnds/lib/libfat.a(file_allocation_table.o)
 .bss           0x0000000002035a18        0x0 /home/ulises/devkitPro/libnds/lib/libfat.a(filetime.o)
 .bss           0x0000000002035a18        0x0 /home/ulises/devkitPro/libnds/lib/libfat.a(directory.o)
 .bss           0x0000000002035a18        0x6 /home/ulises/devkitPro/libnds/lib/libnds9.a(keys.o)
 .bss           0x0000000002035a1e        0x0 /home/ulises/devkitPro/libnds/lib/libnds9.a(sprite.o)
 *fill*         0x0000000002035a1e        0x2 
 .bss           0x0000000002035a20        0x4 /home/ulises/devkitPro/libnds/lib/libnds9.a(sound.o)
                0x0000000002035a20                micCallback
 .bss           0x0000000002035a24        0x0 /home/ulises/devkitPro/libnds/lib/libnds9.a(trig.o)
 .bss           0x0000000002035a24        0x0 /home/ulises/devkitPro/libnds/lib/libnds9.a(console.o)
 .bss           0x0000000002035a24        0x0 /home/ulises/devkitPro/libnds/lib/libnds9.a(sprite_alloc.o)
 .bss           0x0000000002035a24        0x0 /home/ulises/devkitPro/libnds/lib/libnds9.a(touch.o)
 .bss           0x0000000002035a24        0x0 /home/ulises/devkitPro/libnds/lib/libnds9.a(video.o)
 .bss           0x0000000002035a24        0x0 /home/ulises/devkitPro/libnds/lib/libnds9.a(background.o)
 .bss           0x0000000002035a24        0x0 /home/ulises/devkitPro/libnds/lib/libnds9.a(dldi.o)
 .bss           0x0000000002035a24        0x0 /home/ulises/devkitPro/libnds/lib/libnds9.a(dsi_sd.o)
 .bss           0x0000000002035a24        0x0 /home/ulises/devkitPro/libnds/lib/libnds9.a(initSystem.o)
 .bss           0x0000000002035a24        0x8 /home/ulises/devkitPro/libnds/lib/libnds9.a(fifosystem.o)
                0x0000000002035a28                processing
 .bss           0x0000000002035a2c        0x0 /home/ulises/devkitPro/libnds/lib/libnds9.a(card.o)
 .bss           0x0000000002035a2c        0x0 /home/ulises/devkitPro/libnds/lib/libnds9.a(libnds_exit.arm.o)
 .bss           0x0000000002035a2c        0x0 /home/ulises/devkitPro/libnds/lib/libnds9.a(interrupts.o)
 .bss           0x0000000002035a2c        0x0 /home/ulises/devkitPro/libnds/lib/libnds9.a(dcache.o)
 .bss           0x0000000002035a2c        0x0 /home/ulises/devkitPro/libnds/lib/libnds9.a(dldi_stub.o)
 .bss           0x0000000002035a2c        0x0 /home/ulises/devkitPro/libnds/lib/libnds9.a(mpu_setup.o)
 .bss           0x0000000002035a2c        0x0 /home/ulises/devkitPro/libnds/lib/libnds9.a(swiSoftReset.o)
 .bss           0x0000000002035a2c        0x0 /home/ulises/devkitPro/libnds/lib/libnds9.a(debugprint.o)
 .bss           0x0000000002035a2c        0x0 /home/ulises/devkitPro/libnds/lib/libnds9.a(biosCalls.o)
 .bss           0x0000000002035a2c        0x0 /home/ulises/devkitPro/libnds/lib/libnds9.a(interruptDispatcher.o)
 .bss           0x0000000002035a2c        0x0 /home/ulises/devkitPro/libnds/lib/libnds9.a(default_font.bin.o)
 .bss           0x0000000002035a2c        0x4 /home/ulises/devkitPro/libnds/lib/libnds9.a(system.o)
 .bss           0x0000000002035a30        0x0 /home/ulises/devkitPro/libnds/lib/libnds9.a(timeSupport.o)
 .bss           0x0000000002035a30        0x0 /home/ulises/devkitPro/devkitARM/bin/../lib/gcc/arm-none-eabi/4.9.2/thumb/libgcc.a(_udivsi3.o)
 .bss           0x0000000002035a30        0x0 /home/ulises/devkitPro/devkitARM/bin/../lib/gcc/arm-none-eabi/4.9.2/thumb/libgcc.a(_divsi3.o)
 .bss           0x0000000002035a30        0x0 /home/ulises/devkitPro/devkitARM/bin/../lib/gcc/arm-none-eabi/4.9.2/thumb/libgcc.a(_dvmd_tls.o)
 .bss           0x0000000002035a30        0x0 /home/ulises/devkitPro/devkitARM/bin/../lib/gcc/arm-none-eabi/4.9.2/thumb/libgcc.a(_muldi3.o)
 .bss           0x0000000002035a30        0x0 /home/ulises/devkitPro/devkitARM/bin/../lib/gcc/arm-none-eabi/4.9.2/../../../../arm-none-eabi/lib/thumb/libg.a(lib_a-bsearch.o)
 .bss           0x0000000002035a30        0x0 /home/ulises/devkitPro/devkitARM/bin/../lib/gcc/arm-none-eabi/4.9.2/../../../../arm-none-eabi/lib/thumb/libg.a(lib_a-calloc.o)
 .bss           0x0000000002035a30        0x0 /home/ulises/devkitPro/devkitARM/bin/../lib/gcc/arm-none-eabi/4.9.2/../../../../arm-none-eabi/lib/thumb/libg.a(lib_a-callocr.o)
 .bss           0x0000000002035a30        0x0 /home/ulises/devkitPro/devkitARM/bin/../lib/gcc/arm-none-eabi/4.9.2/../../../../arm-none-eabi/lib/thumb/libg.a(lib_a-ctype_.o)
 .bss           0x0000000002035a30        0x0 /home/ulises/devkitPro/devkitARM/bin/../lib/gcc/arm-none-eabi/4.9.2/../../../../arm-none-eabi/lib/thumb/libg.a(lib_a-fclose.o)
 .bss           0x0000000002035a30        0x0 /home/ulises/devkitPro/devkitARM/bin/../lib/gcc/arm-none-eabi/4.9.2/../../../../arm-none-eabi/lib/thumb/libg.a(lib_a-fflush.o)
 .bss           0x0000000002035a30        0x0 /home/ulises/devkitPro/devkitARM/bin/../lib/gcc/arm-none-eabi/4.9.2/../../../../arm-none-eabi/lib/thumb/libg.a(lib_a-findfp.o)
 .bss           0x0000000002035a30        0x0 /home/ulises/devkitPro/devkitARM/bin/../lib/gcc/arm-none-eabi/4.9.2/../../../../arm-none-eabi/lib/thumb/libg.a(lib_a-fopen.o)
 .bss           0x0000000002035a30        0x0 /home/ulises/devkitPro/devkitARM/bin/../lib/gcc/arm-none-eabi/4.9.2/../../../../arm-none-eabi/lib/thumb/libg.a(lib_a-fread.o)
 .bss           0x0000000002035a30        0x0 /home/ulises/devkitPro/devkitARM/bin/../lib/gcc/arm-none-eabi/4.9.2/../../../../arm-none-eabi/lib/thumb/libg.a(lib_a-freer.o)
 .bss           0x0000000002035a30        0x0 /home/ulises/devkitPro/devkitARM/bin/../lib/gcc/arm-none-eabi/4.9.2/../../../../arm-none-eabi/lib/thumb/libg.a(lib_a-fseek.o)
 .bss           0x0000000002035a30        0x0 /home/ulises/devkitPro/devkitARM/bin/../lib/gcc/arm-none-eabi/4.9.2/../../../../arm-none-eabi/lib/thumb/libg.a(lib_a-fseeko.o)
 .bss           0x0000000002035a30        0x0 /home/ulises/devkitPro/devkitARM/bin/../lib/gcc/arm-none-eabi/4.9.2/../../../../arm-none-eabi/lib/thumb/libg.a(lib_a-ftell.o)
 .bss           0x0000000002035a30        0x0 /home/ulises/devkitPro/devkitARM/bin/../lib/gcc/arm-none-eabi/4.9.2/../../../../arm-none-eabi/lib/thumb/libg.a(lib_a-ftello.o)
 .bss           0x0000000002035a30        0x0 /home/ulises/devkitPro/devkitARM/bin/../lib/gcc/arm-none-eabi/4.9.2/../../../../arm-none-eabi/lib/thumb/libg.a(lib_a-fwalk.o)
 .bss           0x0000000002035a30        0x0 /home/ulises/devkitPro/devkitARM/bin/../lib/gcc/arm-none-eabi/4.9.2/../../../../arm-none-eabi/lib/thumb/libg.a(lib_a-impure.o)
 .bss           0x0000000002035a30        0x0 /home/ulises/devkitPro/devkitARM/bin/../lib/gcc/arm-none-eabi/4.9.2/../../../../arm-none-eabi/lib/thumb/libg.a(lib_a-init.o)
 .bss           0x0000000002035a30        0x0 /home/ulises/devkitPro/devkitARM/bin/../lib/gcc/arm-none-eabi/4.9.2/../../../../arm-none-eabi/lib/thumb/libg.a(lib_a-iprintf.o)
 .bss           0x0000000002035a30        0x0 /home/ulises/devkitPro/devkitARM/bin/../lib/gcc/arm-none-eabi/4.9.2/../../../../arm-none-eabi/lib/thumb/libg.a(lib_a-lcltime_r.o)
 .bss           0x0000000002035a30        0x0 /home/ulises/devkitPro/devkitARM/bin/../lib/gcc/arm-none-eabi/4.9.2/../../../../arm-none-eabi/lib/thumb/libg.a(lib_a-locale.o)
 .bss._PathLocale
                0x0000000002035a30        0x4 /home/ulises/devkitPro/devkitARM/bin/../lib/gcc/arm-none-eabi/4.9.2/../../../../arm-none-eabi/lib/thumb/libg.a(lib_a-locale.o)
                0x0000000002035a30                _PathLocale
 .bss.__nlocale_changed
                0x0000000002035a34        0x4 /home/ulises/devkitPro/devkitARM/bin/../lib/gcc/arm-none-eabi/4.9.2/../../../../arm-none-eabi/lib/thumb/libg.a(lib_a-locale.o)
                0x0000000002035a34                __nlocale_changed
 .bss.__mlocale_changed
                0x0000000002035a38        0x4 /home/ulises/devkitPro/devkitARM/bin/../lib/gcc/arm-none-eabi/4.9.2/../../../../arm-none-eabi/lib/thumb/libg.a(lib_a-locale.o)
                0x0000000002035a38                __mlocale_changed
 .bss.lc_ctype_cjk_lang
                0x0000000002035a3c        0x4 /home/ulises/devkitPro/devkitARM/bin/../lib/gcc/arm-none-eabi/4.9.2/../../../../arm-none-eabi/lib/thumb/libg.a(lib_a-locale.o)
 .bss.new_categories
                0x0000000002035a40       0xe0 /home/ulises/devkitPro/devkitARM/bin/../lib/gcc/arm-none-eabi/4.9.2/../../../../arm-none-eabi/lib/thumb/libg.a(lib_a-locale.o)
 .bss.current_locale_string
                0x0000000002035b20       0xe8 /home/ulises/devkitPro/devkitARM/bin/../lib/gcc/arm-none-eabi/4.9.2/../../../../arm-none-eabi/lib/thumb/libg.a(lib_a-locale.o)
 .bss.saved_categories
                0x0000000002035c08       0xe0 /home/ulises/devkitPro/devkitARM/bin/../lib/gcc/arm-none-eabi/4.9.2/../../../../arm-none-eabi/lib/thumb/libg.a(lib_a-locale.o)
 .bss           0x0000000002035ce8        0x0 /home/ulises/devkitPro/devkitARM/bin/../lib/gcc/arm-none-eabi/4.9.2/../../../../arm-none-eabi/lib/thumb/libg.a(lib_a-makebuf.o)
 .bss           0x0000000002035ce8        0x0 /home/ulises/devkitPro/devkitARM/bin/../lib/gcc/arm-none-eabi/4.9.2/../../../../arm-none-eabi/lib/thumb/libg.a(lib_a-malloc.o)
 .bss           0x0000000002035ce8        0x0 /home/ulises/devkitPro/devkitARM/bin/../lib/gcc/arm-none-eabi/4.9.2/../../../../arm-none-eabi/lib/thumb/libg.a(lib_a-mallocr.o)
 .bss.__malloc_max_total_mem
                0x0000000002035ce8        0x4 /home/ulises/devkitPro/devkitARM/bin/../lib/gcc/arm-none-eabi/4.9.2/../../../../arm-none-eabi/lib/thumb/libg.a(lib_a-mallocr.o)
                0x0000000002035ce8                __malloc_max_total_mem
 .bss.__malloc_max_sbrked_mem
                0x0000000002035cec        0x4 /home/ulises/devkitPro/devkitARM/bin/../lib/gcc/arm-none-eabi/4.9.2/../../../../arm-none-eabi/lib/thumb/libg.a(lib_a-mallocr.o)
                0x0000000002035cec                __malloc_max_sbrked_mem
 .bss.__malloc_top_pad
                0x0000000002035cf0        0x4 /home/ulises/devkitPro/devkitARM/bin/../lib/gcc/arm-none-eabi/4.9.2/../../../../arm-none-eabi/lib/thumb/libg.a(lib_a-mallocr.o)
                0x0000000002035cf0                __malloc_top_pad
 .bss.__malloc_current_mallinfo
                0x0000000002035cf4       0x28 /home/ulises/devkitPro/devkitARM/bin/../lib/gcc/arm-none-eabi/4.9.2/../../../../arm-none-eabi/lib/thumb/libg.a(lib_a-mallocr.o)
                0x0000000002035cf4                __malloc_current_mallinfo
 .bss           0x0000000002035d1c        0x0 /home/ulises/devkitPro/devkitARM/bin/../lib/gcc/arm-none-eabi/4.9.2/../../../../arm-none-eabi/lib/thumb/libg.a(lib_a-mbrtowc.o)
 .bss           0x0000000002035d1c        0x0 /home/ulises/devkitPro/devkitARM/bin/../lib/gcc/arm-none-eabi/4.9.2/../../../../arm-none-eabi/lib/thumb/libg.a(lib_a-mbsrtowcs.o)
 .bss           0x0000000002035d1c        0x0 /home/ulises/devkitPro/devkitARM/bin/../lib/gcc/arm-none-eabi/4.9.2/../../../../arm-none-eabi/lib/thumb/libg.a(lib_a-mbtowc_r.o)
 .bss           0x0000000002035d1c        0x0 /home/ulises/devkitPro/devkitARM/bin/../lib/gcc/arm-none-eabi/4.9.2/../../../../arm-none-eabi/lib/thumb/libg.a(lib_a-memcmp.o)
 .bss           0x0000000002035d1c        0x0 /home/ulises/devkitPro/devkitARM/bin/../lib/gcc/arm-none-eabi/4.9.2/../../../../arm-none-eabi/lib/thumb/libg.a(lib_a-memcpy.o)
 .bss           0x0000000002035d1c        0x0 /home/ulises/devkitPro/devkitARM/bin/../lib/gcc/arm-none-eabi/4.9.2/../../../../arm-none-eabi/lib/thumb/libg.a(lib_a-memmove.o)
 .bss           0x0000000002035d1c        0x0 /home/ulises/devkitPro/devkitARM/bin/../lib/gcc/arm-none-eabi/4.9.2/../../../../arm-none-eabi/lib/thumb/libg.a(lib_a-memset.o)
 .bss           0x0000000002035d1c        0x0 /home/ulises/devkitPro/devkitARM/bin/../lib/gcc/arm-none-eabi/4.9.2/../../../../arm-none-eabi/lib/thumb/libg.a(lib_a-mktime.o)
 .bss           0x0000000002035d1c        0x0 /home/ulises/devkitPro/devkitARM/bin/../lib/gcc/arm-none-eabi/4.9.2/../../../../arm-none-eabi/lib/thumb/libg.a(lib_a-mlock.o)
 .bss           0x0000000002035d1c        0x0 /home/ulises/devkitPro/devkitARM/bin/../lib/gcc/arm-none-eabi/4.9.2/../../../../arm-none-eabi/lib/thumb/libg.a(lib_a-month_lengths.o)
 .bss           0x0000000002035d1c        0x0 /home/ulises/devkitPro/devkitARM/bin/../lib/gcc/arm-none-eabi/4.9.2/../../../../arm-none-eabi/lib/thumb/libg.a(lib_a-realloc.o)
 .bss           0x0000000002035d1c        0x0 /home/ulises/devkitPro/devkitARM/bin/../lib/gcc/arm-none-eabi/4.9.2/../../../../arm-none-eabi/lib/thumb/libg.a(lib_a-reallocr.o)
 .bss           0x0000000002035d1c        0x0 /home/ulises/devkitPro/devkitARM/bin/../lib/gcc/arm-none-eabi/4.9.2/../../../../arm-none-eabi/lib/thumb/libg.a(lib_a-refill.o)
 .bss           0x0000000002035d1c        0x0 /home/ulises/devkitPro/devkitARM/bin/../lib/gcc/arm-none-eabi/4.9.2/../../../../arm-none-eabi/lib/thumb/libg.a(lib_a-rewind.o)
 .bss           0x0000000002035d1c        0x0 /home/ulises/devkitPro/devkitARM/bin/../lib/gcc/arm-none-eabi/4.9.2/../../../../arm-none-eabi/lib/thumb/libg.a(lib_a-setvbuf.o)
 .bss           0x0000000002035d1c        0x0 /home/ulises/devkitPro/devkitARM/bin/../lib/gcc/arm-none-eabi/4.9.2/../../../../arm-none-eabi/lib/thumb/libg.a(lib_a-siscanf.o)
 .bss           0x0000000002035d1c        0x0 /home/ulises/devkitPro/devkitARM/bin/../lib/gcc/arm-none-eabi/4.9.2/../../../../arm-none-eabi/lib/thumb/libg.a(lib_a-sprintf.o)
 .bss           0x0000000002035d1c        0x0 /home/ulises/devkitPro/devkitARM/bin/../lib/gcc/arm-none-eabi/4.9.2/../../../../arm-none-eabi/lib/thumb/libg.a(lib_a-stdio.o)
 .bss           0x0000000002035d1c        0x0 /home/ulises/devkitPro/devkitARM/bin/../lib/gcc/arm-none-eabi/4.9.2/../../../../arm-none-eabi/lib/thumb/libg.a(lib_a-stpcpy.o)
 .bss           0x0000000002035d1c        0x0 /home/ulises/devkitPro/devkitARM/bin/../lib/gcc/arm-none-eabi/4.9.2/../../../../arm-none-eabi/lib/thumb/libg.a(lib_a-strcasecmp.o)
 .bss           0x0000000002035d1c        0x0 /home/ulises/devkitPro/devkitARM/bin/../lib/gcc/arm-none-eabi/4.9.2/../../../../arm-none-eabi/lib/thumb/libg.a(lib_a-strcat.o)
 .bss           0x0000000002035d1c        0x0 /home/ulises/devkitPro/devkitARM/bin/../lib/gcc/arm-none-eabi/4.9.2/../../../../arm-none-eabi/lib/thumb/libg.a(lib_a-strchr.o)
 .bss           0x0000000002035d1c        0x0 /home/ulises/devkitPro/devkitARM/bin/../lib/gcc/arm-none-eabi/4.9.2/../../../../arm-none-eabi/lib/thumb/libg.a(lib_a-strcmp.o)
 .bss           0x0000000002035d1c        0x0 /home/ulises/devkitPro/devkitARM/bin/../lib/gcc/arm-none-eabi/4.9.2/../../../../arm-none-eabi/lib/thumb/libg.a(lib_a-strcpy.o)
 .bss           0x0000000002035d1c        0x0 /home/ulises/devkitPro/devkitARM/bin/../lib/gcc/arm-none-eabi/4.9.2/../../../../arm-none-eabi/lib/thumb/libg.a(lib_a-strdup.o)
 .bss           0x0000000002035d1c        0x0 /home/ulises/devkitPro/devkitARM/bin/../lib/gcc/arm-none-eabi/4.9.2/../../../../arm-none-eabi/lib/thumb/libg.a(lib_a-strdup_r.o)
 .bss           0x0000000002035d1c        0x0 /home/ulises/devkitPro/devkitARM/bin/../lib/gcc/arm-none-eabi/4.9.2/../../../../arm-none-eabi/lib/thumb/libg.a(lib_a-strlcpy.o)
 .bss           0x0000000002035d1c        0x0 /home/ulises/devkitPro/devkitARM/bin/../lib/gcc/arm-none-eabi/4.9.2/../../../../arm-none-eabi/lib/thumb/libg.a(lib_a-strlen.o)
 .bss           0x0000000002035d1c        0x0 /home/ulises/devkitPro/devkitARM/bin/../lib/gcc/arm-none-eabi/4.9.2/../../../../arm-none-eabi/lib/thumb/libg.a(lib_a-strncasecmp.o)
 .bss           0x0000000002035d1c        0x0 /home/ulises/devkitPro/devkitARM/bin/../lib/gcc/arm-none-eabi/4.9.2/../../../../arm-none-eabi/lib/thumb/libg.a(lib_a-strncmp.o)
 .bss           0x0000000002035d1c        0x0 /home/ulises/devkitPro/devkitARM/bin/../lib/gcc/arm-none-eabi/4.9.2/../../../../arm-none-eabi/lib/thumb/libg.a(lib_a-strncpy.o)
 .bss           0x0000000002035d1c        0x0 /home/ulises/devkitPro/devkitARM/bin/../lib/gcc/arm-none-eabi/4.9.2/../../../../arm-none-eabi/lib/thumb/libg.a(lib_a-strnlen.o)
 .bss           0x0000000002035d1c        0x0 /home/ulises/devkitPro/devkitARM/bin/../lib/gcc/arm-none-eabi/4.9.2/../../../../arm-none-eabi/lib/thumb/libg.a(lib_a-strpbrk.o)
 .bss           0x0000000002035d1c        0x0 /home/ulises/devkitPro/devkitARM/bin/../lib/gcc/arm-none-eabi/4.9.2/../../../../arm-none-eabi/lib/thumb/libg.a(lib_a-strrchr.o)
 .bss           0x0000000002035d1c        0x0 /home/ulises/devkitPro/devkitARM/bin/../lib/gcc/arm-none-eabi/4.9.2/../../../../arm-none-eabi/lib/thumb/libg.a(lib_a-strtol.o)
 .bss           0x0000000002035d1c        0x0 /home/ulises/devkitPro/devkitARM/bin/../lib/gcc/arm-none-eabi/4.9.2/../../../../arm-none-eabi/lib/thumb/libg.a(lib_a-svfiscanf.o)
 .bss           0x0000000002035d1c        0x0 /home/ulises/devkitPro/devkitARM/bin/../lib/gcc/arm-none-eabi/4.9.2/../../../../arm-none-eabi/lib/thumb/libg.a(lib_a-svfprintf.o)
 .bss           0x0000000002035d1c        0x0 /home/ulises/devkitPro/devkitARM/bin/../lib/gcc/arm-none-eabi/4.9.2/../../../../arm-none-eabi/lib/thumb/libg.a(lib_a-sysclose.o)
 .bss           0x0000000002035d1c        0x0 /home/ulises/devkitPro/devkitARM/bin/../lib/gcc/arm-none-eabi/4.9.2/../../../../arm-none-eabi/lib/thumb/libg.a(lib_a-syslseek.o)
 .bss           0x0000000002035d1c        0x0 /home/ulises/devkitPro/devkitARM/bin/../lib/gcc/arm-none-eabi/4.9.2/../../../../arm-none-eabi/lib/thumb/libg.a(lib_a-sysopen.o)
 .bss           0x0000000002035d1c        0x0 /home/ulises/devkitPro/devkitARM/bin/../lib/gcc/arm-none-eabi/4.9.2/../../../../arm-none-eabi/lib/thumb/libg.a(lib_a-sysread.o)
 .bss           0x0000000002035d1c        0x0 /home/ulises/devkitPro/devkitARM/bin/../lib/gcc/arm-none-eabi/4.9.2/../../../../arm-none-eabi/lib/thumb/libg.a(lib_a-time.o)
 .bss           0x0000000002035d1c        0x0 /home/ulises/devkitPro/devkitARM/bin/../lib/gcc/arm-none-eabi/4.9.2/../../../../arm-none-eabi/lib/thumb/libg.a(lib_a-towlower.o)
 .bss           0x0000000002035d1c        0x0 /home/ulises/devkitPro/devkitARM/bin/../lib/gcc/arm-none-eabi/4.9.2/../../../../arm-none-eabi/lib/thumb/libg.a(lib_a-towupper.o)
 .bss           0x0000000002035d1c        0x0 /home/ulises/devkitPro/devkitARM/bin/../lib/gcc/arm-none-eabi/4.9.2/../../../../arm-none-eabi/lib/thumb/libg.a(lib_a-tzcalc_limits.o)
 .bss           0x0000000002035d1c        0x0 /home/ulises/devkitPro/devkitARM/bin/../lib/gcc/arm-none-eabi/4.9.2/../../../../arm-none-eabi/lib/thumb/libg.a(lib_a-tzlock.o)
 .bss           0x0000000002035d1c        0x0 /home/ulises/devkitPro/devkitARM/bin/../lib/gcc/arm-none-eabi/4.9.2/../../../../arm-none-eabi/lib/thumb/libg.a(lib_a-tzvars.o)
 .bss._daylight
                0x0000000002035d1c        0x4 /home/ulises/devkitPro/devkitARM/bin/../lib/gcc/arm-none-eabi/4.9.2/../../../../arm-none-eabi/lib/thumb/libg.a(lib_a-tzvars.o)
                0x0000000002035d1c                _daylight
 .bss._timezone
                0x0000000002035d20        0x4 /home/ulises/devkitPro/devkitARM/bin/../lib/gcc/arm-none-eabi/4.9.2/../../../../arm-none-eabi/lib/thumb/libg.a(lib_a-tzvars.o)
                0x0000000002035d20                _timezone
 .bss           0x0000000002035d24        0x0 /home/ulises/devkitPro/devkitARM/bin/../lib/gcc/arm-none-eabi/4.9.2/../../../../arm-none-eabi/lib/thumb/libg.a(lib_a-ungetc.o)
 .bss           0x0000000002035d24        0x0 /home/ulises/devkitPro/devkitARM/bin/../lib/gcc/arm-none-eabi/4.9.2/../../../../arm-none-eabi/lib/thumb/libg.a(lib_a-vfiprintf.o)
 .bss           0x0000000002035d24        0x0 /home/ulises/devkitPro/devkitARM/bin/../lib/gcc/arm-none-eabi/4.9.2/../../../../arm-none-eabi/lib/thumb/libg.a(lib_a-wcrtomb.o)
 .bss           0x0000000002035d24        0x0 /home/ulises/devkitPro/devkitARM/bin/../lib/gcc/arm-none-eabi/4.9.2/../../../../arm-none-eabi/lib/thumb/libg.a(lib_a-wcsrtombs.o)
 .bss           0x0000000002035d24        0x0 /home/ulises/devkitPro/devkitARM/bin/../lib/gcc/arm-none-eabi/4.9.2/../../../../arm-none-eabi/lib/thumb/libg.a(lib_a-wctob.o)
 .bss           0x0000000002035d24        0x0 /home/ulises/devkitPro/devkitARM/bin/../lib/gcc/arm-none-eabi/4.9.2/../../../../arm-none-eabi/lib/thumb/libg.a(lib_a-wctomb_r.o)
 .bss           0x0000000002035d24        0x0 /home/ulises/devkitPro/devkitARM/bin/../lib/gcc/arm-none-eabi/4.9.2/../../../../arm-none-eabi/lib/thumb/libg.a(lib_a-wsetup.o)
 .bss           0x0000000002035d24        0x0 /home/ulises/devkitPro/devkitARM/bin/../lib/gcc/arm-none-eabi/4.9.2/../../../../arm-none-eabi/lib/thumb/libg.a(lib_a-div.o)
 .bss           0x0000000002035d24        0x0 /home/ulises/devkitPro/devkitARM/bin/../lib/gcc/arm-none-eabi/4.9.2/../../../../arm-none-eabi/lib/thumb/libg.a(lib_a-dtoa.o)
 .bss           0x0000000002035d24        0x0 /home/ulises/devkitPro/devkitARM/bin/../lib/gcc/arm-none-eabi/4.9.2/../../../../arm-none-eabi/lib/thumb/libg.a(lib_a-flags.o)
 .bss           0x0000000002035d24        0x0 /home/ulises/devkitPro/devkitARM/bin/../lib/gcc/arm-none-eabi/4.9.2/../../../../arm-none-eabi/lib/thumb/libg.a(lib_a-fputwc.o)
 .bss           0x0000000002035d24        0x0 /home/ulises/devkitPro/devkitARM/bin/../lib/gcc/arm-none-eabi/4.9.2/../../../../arm-none-eabi/lib/thumb/libg.a(lib_a-fvwrite.o)
 .bss           0x0000000002035d24        0x0 /home/ulises/devkitPro/devkitARM/bin/../lib/gcc/arm-none-eabi/4.9.2/../../../../arm-none-eabi/lib/thumb/libg.a(lib_a-getenv_r.o)
 .bss           0x0000000002035d24        0x0 /home/ulises/devkitPro/devkitARM/bin/../lib/gcc/arm-none-eabi/4.9.2/../../../../arm-none-eabi/lib/thumb/libg.a(lib_a-gettzinfo.o)
 .bss           0x0000000002035d24        0x0 /home/ulises/devkitPro/devkitARM/bin/../lib/gcc/arm-none-eabi/4.9.2/../../../../arm-none-eabi/lib/thumb/libg.a(lib_a-gmtime_r.o)
 .bss           0x0000000002035d24        0x0 /home/ulises/devkitPro/devkitARM/bin/../lib/gcc/arm-none-eabi/4.9.2/../../../../arm-none-eabi/lib/thumb/libg.a(lib_a-iswspace.o)
 .bss           0x0000000002035d24        0x0 /home/ulises/devkitPro/devkitARM/bin/../lib/gcc/arm-none-eabi/4.9.2/../../../../arm-none-eabi/lib/thumb/libg.a(lib_a-jp2uc.o)
 .bss           0x0000000002035d24        0x0 /home/ulises/devkitPro/devkitARM/bin/../lib/gcc/arm-none-eabi/4.9.2/../../../../arm-none-eabi/lib/thumb/libg.a(lib_a-mbsnrtowcs.o)
 .bss           0x0000000002035d24        0x0 /home/ulises/devkitPro/devkitARM/bin/../lib/gcc/arm-none-eabi/4.9.2/../../../../arm-none-eabi/lib/thumb/libg.a(lib_a-memchr.o)
 .bss           0x0000000002035d24        0x0 /home/ulises/devkitPro/devkitARM/bin/../lib/gcc/arm-none-eabi/4.9.2/../../../../arm-none-eabi/lib/thumb/libg.a(lib_a-mprec.o)
 .bss           0x0000000002035d24        0x0 /home/ulises/devkitPro/devkitARM/bin/../lib/gcc/arm-none-eabi/4.9.2/../../../../arm-none-eabi/lib/thumb/libg.a(lib_a-sccl.o)
 .bss           0x0000000002035d24        0x0 /home/ulises/devkitPro/devkitARM/bin/../lib/gcc/arm-none-eabi/4.9.2/../../../../arm-none-eabi/lib/thumb/libg.a(lib_a-s_fpclassify.o)
 .bss           0x0000000002035d24        0x0 /home/ulises/devkitPro/devkitARM/bin/../lib/gcc/arm-none-eabi/4.9.2/../../../../arm-none-eabi/lib/thumb/libg.a(lib_a-s_frexp.o)
 .bss           0x0000000002035d24        0x0 /home/ulises/devkitPro/devkitARM/bin/../lib/gcc/arm-none-eabi/4.9.2/../../../../arm-none-eabi/lib/thumb/libg.a(lib_a-strtoll_r.o)
 .bss           0x0000000002035d24        0x0 /home/ulises/devkitPro/devkitARM/bin/../lib/gcc/arm-none-eabi/4.9.2/../../../../arm-none-eabi/lib/thumb/libg.a(lib_a-strtoull_r.o)
 .bss           0x0000000002035d24        0x0 /home/ulises/devkitPro/devkitARM/bin/../lib/gcc/arm-none-eabi/4.9.2/../../../../arm-none-eabi/lib/thumb/libg.a(lib_a-strtoul.o)
 .bss           0x0000000002035d24        0x0 /home/ulises/devkitPro/devkitARM/bin/../lib/gcc/arm-none-eabi/4.9.2/../../../../arm-none-eabi/lib/thumb/libg.a(lib_a-svfiprintf.o)
 .bss           0x0000000002035d24        0x0 /home/ulises/devkitPro/devkitARM/bin/../lib/gcc/arm-none-eabi/4.9.2/../../../../arm-none-eabi/lib/thumb/libg.a(lib_a-wbuf.o)
 .bss           0x0000000002035d24        0x0 /home/ulises/devkitPro/devkitARM/bin/../lib/gcc/arm-none-eabi/4.9.2/../../../../arm-none-eabi/lib/thumb/libg.a(lib_a-wcsnrtombs.o)
 .bss           0x0000000002035d24        0x0 /home/ulises/devkitPro/devkitARM/bin/../lib/gcc/arm-none-eabi/4.9.2/../../../../arm-none-eabi/lib/thumb/libg.a(lib_a-environ.o)
 .bss.initial_env
                0x0000000002035d24        0x4 /home/ulises/devkitPro/devkitARM/bin/../lib/gcc/arm-none-eabi/4.9.2/../../../../arm-none-eabi/lib/thumb/libg.a(lib_a-environ.o)
 .bss           0x0000000002035d28        0x0 /home/ulises/devkitPro/devkitARM/bin/../lib/gcc/arm-none-eabi/4.9.2/../../../../arm-none-eabi/lib/thumb/libg.a(lib_a-envlock.o)
 .bss           0x0000000002035d28        0x0 /home/ulises/devkitPro/devkitARM/bin/../lib/gcc/arm-none-eabi/4.9.2/../../../../arm-none-eabi/lib/thumb/libsysbase.a(iosupport.o)
 .bss           0x0000000002035d28        0x0 /home/ulises/devkitPro/devkitARM/bin/../lib/gcc/arm-none-eabi/4.9.2/../../../../arm-none-eabi/lib/thumb/libsysbase.a(close.o)
 .bss           0x0000000002035d28        0x0 /home/ulises/devkitPro/devkitARM/bin/../lib/gcc/arm-none-eabi/4.9.2/../../../../arm-none-eabi/lib/thumb/libsysbase.a(fstat.o)
 .bss           0x0000000002035d28        0x0 /home/ulises/devkitPro/devkitARM/bin/../lib/gcc/arm-none-eabi/4.9.2/../../../../arm-none-eabi/lib/thumb/libsysbase.a(gettod.o)
 .bss           0x0000000002035d28        0x0 /home/ulises/devkitPro/devkitARM/bin/../lib/gcc/arm-none-eabi/4.9.2/../../../../arm-none-eabi/lib/thumb/libsysbase.a(isatty.o)
 .bss           0x0000000002035d28        0x0 /home/ulises/devkitPro/devkitARM/bin/../lib/gcc/arm-none-eabi/4.9.2/../../../../arm-none-eabi/lib/thumb/libsysbase.a(lseek.o)
 .bss           0x0000000002035d28        0x0 /home/ulises/devkitPro/devkitARM/bin/../lib/gcc/arm-none-eabi/4.9.2/../../../../arm-none-eabi/lib/thumb/libsysbase.a(open.o)
 .bss           0x0000000002035d28        0x0 /home/ulises/devkitPro/devkitARM/bin/../lib/gcc/arm-none-eabi/4.9.2/../../../../arm-none-eabi/lib/thumb/libsysbase.a(read.o)
 .bss           0x0000000002035d28        0x4 /home/ulises/devkitPro/devkitARM/bin/../lib/gcc/arm-none-eabi/4.9.2/../../../../arm-none-eabi/lib/thumb/libsysbase.a(sbrk.o)
 .bss           0x0000000002035d2c        0x0 /home/ulises/devkitPro/devkitARM/bin/../lib/gcc/arm-none-eabi/4.9.2/../../../../arm-none-eabi/lib/thumb/libsysbase.a(write.o)
 .bss           0x0000000002035d2c        0x8 /home/ulises/devkitPro/devkitARM/bin/../lib/gcc/arm-none-eabi/4.9.2/../../../../arm-none-eabi/lib/thumb/libsysbase.a(malloc_vars.o)
                0x0000000002035d2c                fake_heap_start
                0x0000000002035d30                fake_heap_end
 .bss           0x0000000002035d34     0x1000 /home/ulises/devkitPro/devkitARM/bin/../lib/gcc/arm-none-eabi/4.9.2/../../../../arm-none-eabi/lib/thumb/libsysbase.a(chdir.o)
 .bss           0x0000000002036d34        0x0 /home/ulises/devkitPro/devkitARM/bin/../lib/gcc/arm-none-eabi/4.9.2/../../../../arm-none-eabi/lib/thumb/libsysbase.a(build_argv.o)
 .bss           0x0000000002036d34        0x0 /home/ulises/devkitPro/devkitARM/bin/../lib/gcc/arm-none-eabi/4.9.2/../../../../arm-none-eabi/lib/thumb/libsysbase.a(flock.o)
 .bss           0x0000000002036d34       0x40 /home/ulises/devkitPro/devkitARM/bin/../lib/gcc/arm-none-eabi/4.9.2/../../../../arm-none-eabi/lib/thumb/libsysbase.a(syscall_support.o)
                0x0000000002036d34                __syscalls
 .bss           0x0000000002036d74        0x0 /home/ulises/devkitPro/devkitARM/bin/../lib/gcc/arm-none-eabi/4.9.2/../../../../arm-none-eabi/lib/thumb/libsysbase.a(handle_manager.o)
 .bss           0x0000000002036d74        0x0 /home/ulises/devkitPro/devkitARM/bin/../lib/gcc/arm-none-eabi/4.9.2/../../../../arm-none-eabi/lib/thumb/libsysbase.a(getreent.o)
 .bss           0x0000000002036d74        0x0 /home/ulises/devkitPro/devkitARM/bin/../lib/gcc/arm-none-eabi/4.9.2/thumb/libgcc.a(_arm_addsubdf3.o)
 .bss           0x0000000002036d74        0x0 /home/ulises/devkitPro/devkitARM/bin/../lib/gcc/arm-none-eabi/4.9.2/thumb/libgcc.a(_arm_muldivdf3.o)
 .bss           0x0000000002036d74        0x0 /home/ulises/devkitPro/devkitARM/bin/../lib/gcc/arm-none-eabi/4.9.2/thumb/libgcc.a(_arm_cmpdf2.o)
 .bss           0x0000000002036d74        0x0 /home/ulises/devkitPro/devkitARM/bin/../lib/gcc/arm-none-eabi/4.9.2/thumb/libgcc.a(_arm_fixdfsi.o)
 .bss           0x0000000002036d74        0x0 /home/ulises/devkitPro/devkitARM/bin/../lib/gcc/arm-none-eabi/4.9.2/thumb/libgcc.a(_aeabi_uldivmod.o)
 .bss           0x0000000002036d74        0x0 /home/ulises/devkitPro/devkitARM/bin/../lib/gcc/arm-none-eabi/4.9.2/thumb/libgcc.a(bpabi.o)
 .bss           0x0000000002036d74        0x0 /home/ulises/devkitPro/devkitARM/bin/../lib/gcc/arm-none-eabi/4.9.2/thumb/libgcc.a(_divdi3.o)
 .bss           0x0000000002036d74        0x0 /home/ulises/devkitPro/devkitARM/bin/../lib/gcc/arm-none-eabi/4.9.2/thumb/libgcc.a(_udivdi3.o)
 .bss           0x0000000002036d74        0x0 /home/ulises/devkitPro/devkitARM/bin/../lib/gcc/arm-none-eabi/4.9.2/thumb/libgcc.a(_clzdi2.o)
 .bss           0x0000000002036d74        0x0 /home/ulises/devkitPro/devkitARM/bin/../lib/gcc/arm-none-eabi/4.9.2/thumb/libgcc.a(_clzsi2.o)
 .bss           0x0000000002036d74        0x0 /home/ulises/devkitPro/devkitARM/bin/../lib/gcc/arm-none-eabi/4.9.2/../../../../arm-none-eabi/lib/thumb/libg.a(lib_a-errno.o)
 .bss           0x0000000002036d74        0x0 /home/ulises/devkitPro/devkitARM/bin/../lib/gcc/arm-none-eabi/4.9.2/thumb/crtend.o
 .bss           0x0000000002036d74        0x0 /home/ulises/devkitPro/devkitARM/bin/../lib/gcc/arm-none-eabi/4.9.2/thumb/crtn.o
 *(COMMON)
 COMMON         0x0000000002036d74       0x20 /home/ulises/Escritorio/dbz/nflib/lib/libnflib.a(nf_basic.o)
                0x0000000002036d74                NF_ROOTFOLDER
 COMMON         0x0000000002036d94      0x200 /home/ulises/Escritorio/dbz/nflib/lib/libnflib.a(nf_sound.o)
                0x0000000002036d94                NF_BUFFER_RAWSOUND
                0x0000000002036e14                NF_RAWSOUND
 COMMON         0x0000000002036f94     0x5370 /home/ulises/Escritorio/dbz/nflib/lib/libnflib.a(nf_sprite256.o)
                0x0000000002036f94                NF_SPR256GFX
                0x0000000002037b94                NF_BUFFER_SPR256PAL
                0x0000000002037c94                NF_BUFFER_SPR256GFX
                0x0000000002038094                NF_SPRITEOAM
                0x000000000203a494                NF_SPR256VRAM
                0x000000000203b894                NF_SPRVRAM
                0x000000000203c0c4                NF_SPRPALSLOT
                0x000000000203c104                NF_SPR256PAL
 COMMON         0x000000000203c304      0xec8 /home/ulises/Escritorio/dbz/nflib/lib/libnflib.a(nf_tiledbg.o)
                0x000000000203c304                NF_BUFFER_BGTILES
                0x000000000203c384                NF_TILEBLOCKS
                0x000000000203c394                NF_BUFFER_BGMAP
                0x000000000203c414                NF_BANKS_TILES
                0x000000000203c418                NF_BANKS_MAPS
                0x000000000203c41c                NF_EXBGPAL
                0x000000000203ca1c                NF_TILEDBG_LAYERS
                0x000000000203caac                NF_MAPBLOCKS
                0x000000000203cacc                NF_BUFFER_BGPAL
                0x000000000203cb4c                NF_TILEDBG
 COMMON         0x000000000203d1cc      0x800 /home/ulises/devkitPro/libnds/lib/libnds9.a(sprite.o)
                0x000000000203d1cc                OamMemorySub
                0x000000000203d5cc                OamMemory
 COMMON         0x000000000203d9cc       0x5c /home/ulises/devkitPro/libnds/lib/libnds9.a(console.o)
                0x000000000203d9cc                currentCopy
 COMMON         0x000000000203da28      0x148 /home/ulises/devkitPro/libnds/lib/libnds9.a(background.o)
                0x000000000203da28                bgState
                0x000000000203db68                bgIsTextLut
 COMMON         0x000000000203db70        0x1 /home/ulises/devkitPro/libnds/lib/libnds9.a(initSystem.o)
                0x000000000203db70                __dsimode
 *fill*         0x000000000203db71        0x3 
 COMMON         0x000000000203db74      0xa40 /home/ulises/devkitPro/libnds/lib/libnds9.a(fifosystem.o)
                0x000000000203db74                fifo_datamsg_data
                0x000000000203dbb4                fifo_buffer
                0x000000000203e3b4                fifo_value32_func
                0x000000000203e3f4                fifo_address_func
                0x000000000203e434                fifo_value32_data
                0x000000000203e474                fifo_value32_queue
                0x000000000203e4b4                fifo_data_queue
                0x000000000203e4f4                fifo_address_data
                0x000000000203e534                fifo_datamsg_func
                0x000000000203e574                fifo_address_queue
 COMMON         0x000000000203e5b4        0x4 /home/ulises/devkitPro/libnds/lib/libnds9.a(timeSupport.o)
                0x000000000203e5b4                punixTime
                0x000000000203e5b8                . = ALIGN (0x4)
                0x000000000203e5b8                __bss_end__ = ABSOLUTE (.)
                0x000000000203e5b8                __end__ = ABSOLUTE (.)

.stab
 *(.stab)

.stabstr
 *(.stabstr)

.stab.excl
 *(.stab.excl)

.stab.exclstr
 *(.stab.exclstr)

.stab.index
 *(.stab.index)

.stab.indexstr
 *(.stab.indexstr)

.comment        0x0000000000000000       0x44
 *(.comment)
 .comment       0x0000000000000000       0x22 /home/ulises/devkitPro/devkitARM/bin/../lib/gcc/arm-none-eabi/4.9.2/thumb/crtbegin.o
                                         0x23 (size before relaxing)
 .comment       0x0000000000000022       0x23 main.o
 .comment       0x0000000000000022       0x22 /home/ulises/Escritorio/dbz/nflib/lib/libnflib.a(nf_2d.o)
                                         0x23 (size before relaxing)
 .comment       0x0000000000000044       0x23 /home/ulises/Escritorio/dbz/nflib/lib/libnflib.a(nf_basic.o)
 .comment       0x0000000000000044       0x23 /home/ulises/Escritorio/dbz/nflib/lib/libnflib.a(nf_sound.o)
 .comment       0x0000000000000044       0x23 /home/ulises/Escritorio/dbz/nflib/lib/libnflib.a(nf_sprite256.o)
 .comment       0x0000000000000044       0x23 /home/ulises/Escritorio/dbz/nflib/lib/libnflib.a(nf_tiledbg.o)
 .comment       0x0000000000000044       0x23 /home/ulises/devkitPro/libnds/lib/libfilesystem.a(nitrofs.o)
 .comment       0x0000000000000044       0x23 /home/ulises/devkitPro/libnds/lib/libfat.a(libfat.o)
 .comment       0x0000000000000044       0x23 /home/ulises/devkitPro/libnds/lib/libfat.a(partition.o)
 .comment       0x0000000000000044       0x23 /home/ulises/devkitPro/libnds/lib/libfat.a(lock.o)
 .comment       0x0000000000000044       0x23 /home/ulises/devkitPro/libnds/lib/libfat.a(fatdir.o)
 .comment       0x0000000000000044       0x23 /home/ulises/devkitPro/libnds/lib/libfat.a(cache.o)
 .comment       0x0000000000000044       0x23 /home/ulises/devkitPro/libnds/lib/libfat.a(fatfile.o)
 .comment       0x0000000000000044       0x23 /home/ulises/devkitPro/libnds/lib/libfat.a(disc.o)
 .comment       0x0000000000000044       0x23 /home/ulises/devkitPro/libnds/lib/libfat.a(file_allocation_table.o)
 .comment       0x0000000000000044       0x23 /home/ulises/devkitPro/libnds/lib/libfat.a(filetime.o)
 .comment       0x0000000000000044       0x23 /home/ulises/devkitPro/libnds/lib/libfat.a(directory.o)
 .comment       0x0000000000000044       0x23 /home/ulises/devkitPro/libnds/lib/libnds9.a(keys.o)
 .comment       0x0000000000000044       0x23 /home/ulises/devkitPro/libnds/lib/libnds9.a(sprite.o)
 .comment       0x0000000000000044       0x23 /home/ulises/devkitPro/libnds/lib/libnds9.a(sound.o)
 .comment       0x0000000000000044       0x23 /home/ulises/devkitPro/libnds/lib/libnds9.a(trig.o)
 .comment       0x0000000000000044       0x23 /home/ulises/devkitPro/libnds/lib/libnds9.a(console.o)
 .comment       0x0000000000000044       0x23 /home/ulises/devkitPro/libnds/lib/libnds9.a(sprite_alloc.o)
 .comment       0x0000000000000044       0x23 /home/ulises/devkitPro/libnds/lib/libnds9.a(touch.o)
 .comment       0x0000000000000044       0x23 /home/ulises/devkitPro/libnds/lib/libnds9.a(video.o)
 .comment       0x0000000000000044       0x23 /home/ulises/devkitPro/libnds/lib/libnds9.a(background.o)
 .comment       0x0000000000000044       0x23 /home/ulises/devkitPro/libnds/lib/libnds9.a(dldi.o)
 .comment       0x0000000000000044       0x23 /home/ulises/devkitPro/libnds/lib/libnds9.a(dsi_sd.o)
 .comment       0x0000000000000044       0x23 /home/ulises/devkitPro/libnds/lib/libnds9.a(initSystem.o)
 .comment       0x0000000000000044       0x23 /home/ulises/devkitPro/libnds/lib/libnds9.a(fifosystem.o)
 .comment       0x0000000000000044       0x23 /home/ulises/devkitPro/libnds/lib/libnds9.a(card.o)
 .comment       0x0000000000000044       0x23 /home/ulises/devkitPro/libnds/lib/libnds9.a(libnds_exit.arm.o)
 .comment       0x0000000000000044       0x23 /home/ulises/devkitPro/libnds/lib/libnds9.a(interrupts.o)
 .comment       0x0000000000000044       0x23 /home/ulises/devkitPro/libnds/lib/libnds9.a(system.o)
 .comment       0x0000000000000044       0x23 /home/ulises/devkitPro/libnds/lib/libnds9.a(timeSupport.o)
 .comment       0x0000000000000044       0x23 /home/ulises/devkitPro/devkitARM/bin/../lib/gcc/arm-none-eabi/4.9.2/thumb/libgcc.a(_muldi3.o)
 .comment       0x0000000000000044       0x23 /home/ulises/devkitPro/devkitARM/bin/../lib/gcc/arm-none-eabi/4.9.2/../../../../arm-none-eabi/lib/thumb/libg.a(lib_a-bsearch.o)
 .comment       0x0000000000000044       0x23 /home/ulises/devkitPro/devkitARM/bin/../lib/gcc/arm-none-eabi/4.9.2/../../../../arm-none-eabi/lib/thumb/libg.a(lib_a-calloc.o)
 .comment       0x0000000000000044       0x23 /home/ulises/devkitPro/devkitARM/bin/../lib/gcc/arm-none-eabi/4.9.2/../../../../arm-none-eabi/lib/thumb/libg.a(lib_a-callocr.o)
 .comment       0x0000000000000044       0x23 /home/ulises/devkitPro/devkitARM/bin/../lib/gcc/arm-none-eabi/4.9.2/../../../../arm-none-eabi/lib/thumb/libg.a(lib_a-ctype_.o)
 .comment       0x0000000000000044       0x23 /home/ulises/devkitPro/devkitARM/bin/../lib/gcc/arm-none-eabi/4.9.2/../../../../arm-none-eabi/lib/thumb/libg.a(lib_a-fclose.o)
 .comment       0x0000000000000044       0x23 /home/ulises/devkitPro/devkitARM/bin/../lib/gcc/arm-none-eabi/4.9.2/../../../../arm-none-eabi/lib/thumb/libg.a(lib_a-fflush.o)
 .comment       0x0000000000000044       0x23 /home/ulises/devkitPro/devkitARM/bin/../lib/gcc/arm-none-eabi/4.9.2/../../../../arm-none-eabi/lib/thumb/libg.a(lib_a-findfp.o)
 .comment       0x0000000000000044       0x23 /home/ulises/devkitPro/devkitARM/bin/../lib/gcc/arm-none-eabi/4.9.2/../../../../arm-none-eabi/lib/thumb/libg.a(lib_a-fopen.o)
 .comment       0x0000000000000044       0x23 /home/ulises/devkitPro/devkitARM/bin/../lib/gcc/arm-none-eabi/4.9.2/../../../../arm-none-eabi/lib/thumb/libg.a(lib_a-fread.o)
 .comment       0x0000000000000044       0x23 /home/ulises/devkitPro/devkitARM/bin/../lib/gcc/arm-none-eabi/4.9.2/../../../../arm-none-eabi/lib/thumb/libg.a(lib_a-freer.o)
 .comment       0x0000000000000044       0x23 /home/ulises/devkitPro/devkitARM/bin/../lib/gcc/arm-none-eabi/4.9.2/../../../../arm-none-eabi/lib/thumb/libg.a(lib_a-fseek.o)
 .comment       0x0000000000000044       0x23 /home/ulises/devkitPro/devkitARM/bin/../lib/gcc/arm-none-eabi/4.9.2/../../../../arm-none-eabi/lib/thumb/libg.a(lib_a-fseeko.o)
 .comment       0x0000000000000044       0x23 /home/ulises/devkitPro/devkitARM/bin/../lib/gcc/arm-none-eabi/4.9.2/../../../../arm-none-eabi/lib/thumb/libg.a(lib_a-ftell.o)
 .comment       0x0000000000000044       0x23 /home/ulises/devkitPro/devkitARM/bin/../lib/gcc/arm-none-eabi/4.9.2/../../../../arm-none-eabi/lib/thumb/libg.a(lib_a-ftello.o)
 .comment       0x0000000000000044       0x23 /home/ulises/devkitPro/devkitARM/bin/../lib/gcc/arm-none-eabi/4.9.2/../../../../arm-none-eabi/lib/thumb/libg.a(lib_a-fwalk.o)
 .comment       0x0000000000000044       0x23 /home/ulises/devkitPro/devkitARM/bin/../lib/gcc/arm-none-eabi/4.9.2/../../../../arm-none-eabi/lib/thumb/libg.a(lib_a-impure.o)
 .comment       0x0000000000000044       0x23 /home/ulises/devkitPro/devkitARM/bin/../lib/gcc/arm-none-eabi/4.9.2/../../../../arm-none-eabi/lib/thumb/libg.a(lib_a-init.o)
 .comment       0x0000000000000044       0x23 /home/ulises/devkitPro/devkitARM/bin/../lib/gcc/arm-none-eabi/4.9.2/../../../../arm-none-eabi/lib/thumb/libg.a(lib_a-iprintf.o)
 .comment       0x0000000000000044       0x23 /home/ulises/devkitPro/devkitARM/bin/../lib/gcc/arm-none-eabi/4.9.2/../../../../arm-none-eabi/lib/thumb/libg.a(lib_a-lcltime_r.o)
 .comment       0x0000000000000044       0x23 /home/ulises/devkitPro/devkitARM/bin/../lib/gcc/arm-none-eabi/4.9.2/../../../../arm-none-eabi/lib/thumb/libg.a(lib_a-locale.o)
 .comment       0x0000000000000044       0x23 /home/ulises/devkitPro/devkitARM/bin/../lib/gcc/arm-none-eabi/4.9.2/../../../../arm-none-eabi/lib/thumb/libg.a(lib_a-makebuf.o)
 .comment       0x0000000000000044       0x23 /home/ulises/devkitPro/devkitARM/bin/../lib/gcc/arm-none-eabi/4.9.2/../../../../arm-none-eabi/lib/thumb/libg.a(lib_a-malloc.o)
 .comment       0x0000000000000044       0x23 /home/ulises/devkitPro/devkitARM/bin/../lib/gcc/arm-none-eabi/4.9.2/../../../../arm-none-eabi/lib/thumb/libg.a(lib_a-mallocr.o)
 .comment       0x0000000000000044       0x23 /home/ulises/devkitPro/devkitARM/bin/../lib/gcc/arm-none-eabi/4.9.2/../../../../arm-none-eabi/lib/thumb/libg.a(lib_a-mbrtowc.o)
 .comment       0x0000000000000044       0x23 /home/ulises/devkitPro/devkitARM/bin/../lib/gcc/arm-none-eabi/4.9.2/../../../../arm-none-eabi/lib/thumb/libg.a(lib_a-mbsrtowcs.o)
 .comment       0x0000000000000044       0x23 /home/ulises/devkitPro/devkitARM/bin/../lib/gcc/arm-none-eabi/4.9.2/../../../../arm-none-eabi/lib/thumb/libg.a(lib_a-mbtowc_r.o)
 .comment       0x0000000000000044       0x23 /home/ulises/devkitPro/devkitARM/bin/../lib/gcc/arm-none-eabi/4.9.2/../../../../arm-none-eabi/lib/thumb/libg.a(lib_a-memcmp.o)
 .comment       0x0000000000000044       0x23 /home/ulises/devkitPro/devkitARM/bin/../lib/gcc/arm-none-eabi/4.9.2/../../../../arm-none-eabi/lib/thumb/libg.a(lib_a-memcpy.o)
 .comment       0x0000000000000044       0x23 /home/ulises/devkitPro/devkitARM/bin/../lib/gcc/arm-none-eabi/4.9.2/../../../../arm-none-eabi/lib/thumb/libg.a(lib_a-memmove.o)
 .comment       0x0000000000000044       0x23 /home/ulises/devkitPro/devkitARM/bin/../lib/gcc/arm-none-eabi/4.9.2/../../../../arm-none-eabi/lib/thumb/libg.a(lib_a-memset.o)
 .comment       0x0000000000000044       0x23 /home/ulises/devkitPro/devkitARM/bin/../lib/gcc/arm-none-eabi/4.9.2/../../../../arm-none-eabi/lib/thumb/libg.a(lib_a-mktime.o)
 .comment       0x0000000000000044       0x23 /home/ulises/devkitPro/devkitARM/bin/../lib/gcc/arm-none-eabi/4.9.2/../../../../arm-none-eabi/lib/thumb/libg.a(lib_a-mlock.o)
 .comment       0x0000000000000044       0x23 /home/ulises/devkitPro/devkitARM/bin/../lib/gcc/arm-none-eabi/4.9.2/../../../../arm-none-eabi/lib/thumb/libg.a(lib_a-month_lengths.o)
 .comment       0x0000000000000044       0x23 /home/ulises/devkitPro/devkitARM/bin/../lib/gcc/arm-none-eabi/4.9.2/../../../../arm-none-eabi/lib/thumb/libg.a(lib_a-realloc.o)
 .comment       0x0000000000000044       0x23 /home/ulises/devkitPro/devkitARM/bin/../lib/gcc/arm-none-eabi/4.9.2/../../../../arm-none-eabi/lib/thumb/libg.a(lib_a-reallocr.o)
 .comment       0x0000000000000044       0x23 /home/ulises/devkitPro/devkitARM/bin/../lib/gcc/arm-none-eabi/4.9.2/../../../../arm-none-eabi/lib/thumb/libg.a(lib_a-refill.o)
 .comment       0x0000000000000044       0x23 /home/ulises/devkitPro/devkitARM/bin/../lib/gcc/arm-none-eabi/4.9.2/../../../../arm-none-eabi/lib/thumb/libg.a(lib_a-rewind.o)
 .comment       0x0000000000000044       0x23 /home/ulises/devkitPro/devkitARM/bin/../lib/gcc/arm-none-eabi/4.9.2/../../../../arm-none-eabi/lib/thumb/libg.a(lib_a-setvbuf.o)
 .comment       0x0000000000000044       0x23 /home/ulises/devkitPro/devkitARM/bin/../lib/gcc/arm-none-eabi/4.9.2/../../../../arm-none-eabi/lib/thumb/libg.a(lib_a-siscanf.o)
 .comment       0x0000000000000044       0x23 /home/ulises/devkitPro/devkitARM/bin/../lib/gcc/arm-none-eabi/4.9.2/../../../../arm-none-eabi/lib/thumb/libg.a(lib_a-sprintf.o)
 .comment       0x0000000000000044       0x23 /home/ulises/devkitPro/devkitARM/bin/../lib/gcc/arm-none-eabi/4.9.2/../../../../arm-none-eabi/lib/thumb/libg.a(lib_a-stdio.o)
 .comment       0x0000000000000044       0x23 /home/ulises/devkitPro/devkitARM/bin/../lib/gcc/arm-none-eabi/4.9.2/../../../../arm-none-eabi/lib/thumb/libg.a(lib_a-stpcpy.o)
 .comment       0x0000000000000044       0x23 /home/ulises/devkitPro/devkitARM/bin/../lib/gcc/arm-none-eabi/4.9.2/../../../../arm-none-eabi/lib/thumb/libg.a(lib_a-strcasecmp.o)
 .comment       0x0000000000000044       0x23 /home/ulises/devkitPro/devkitARM/bin/../lib/gcc/arm-none-eabi/4.9.2/../../../../arm-none-eabi/lib/thumb/libg.a(lib_a-strcat.o)
 .comment       0x0000000000000044       0x23 /home/ulises/devkitPro/devkitARM/bin/../lib/gcc/arm-none-eabi/4.9.2/../../../../arm-none-eabi/lib/thumb/libg.a(lib_a-strchr.o)
 .comment       0x0000000000000044       0x23 /home/ulises/devkitPro/devkitARM/bin/../lib/gcc/arm-none-eabi/4.9.2/../../../../arm-none-eabi/lib/thumb/libg.a(lib_a-strcpy.o)
 .comment       0x0000000000000044       0x23 /home/ulises/devkitPro/devkitARM/bin/../lib/gcc/arm-none-eabi/4.9.2/../../../../arm-none-eabi/lib/thumb/libg.a(lib_a-strdup.o)
 .comment       0x0000000000000044       0x23 /home/ulises/devkitPro/devkitARM/bin/../lib/gcc/arm-none-eabi/4.9.2/../../../../arm-none-eabi/lib/thumb/libg.a(lib_a-strdup_r.o)
 .comment       0x0000000000000044       0x23 /home/ulises/devkitPro/devkitARM/bin/../lib/gcc/arm-none-eabi/4.9.2/../../../../arm-none-eabi/lib/thumb/libg.a(lib_a-strlcpy.o)
 .comment       0x0000000000000044       0x23 /home/ulises/devkitPro/devkitARM/bin/../lib/gcc/arm-none-eabi/4.9.2/../../../../arm-none-eabi/lib/thumb/libg.a(lib_a-strlen.o)
 .comment       0x0000000000000044       0x23 /home/ulises/devkitPro/devkitARM/bin/../lib/gcc/arm-none-eabi/4.9.2/../../../../arm-none-eabi/lib/thumb/libg.a(lib_a-strncasecmp.o)
 .comment       0x0000000000000044       0x23 /home/ulises/devkitPro/devkitARM/bin/../lib/gcc/arm-none-eabi/4.9.2/../../../../arm-none-eabi/lib/thumb/libg.a(lib_a-strncmp.o)
 .comment       0x0000000000000044       0x23 /home/ulises/devkitPro/devkitARM/bin/../lib/gcc/arm-none-eabi/4.9.2/../../../../arm-none-eabi/lib/thumb/libg.a(lib_a-strncpy.o)
 .comment       0x0000000000000044       0x23 /home/ulises/devkitPro/devkitARM/bin/../lib/gcc/arm-none-eabi/4.9.2/../../../../arm-none-eabi/lib/thumb/libg.a(lib_a-strnlen.o)
 .comment       0x0000000000000044       0x23 /home/ulises/devkitPro/devkitARM/bin/../lib/gcc/arm-none-eabi/4.9.2/../../../../arm-none-eabi/lib/thumb/libg.a(lib_a-strpbrk.o)
 .comment       0x0000000000000044       0x23 /home/ulises/devkitPro/devkitARM/bin/../lib/gcc/arm-none-eabi/4.9.2/../../../../arm-none-eabi/lib/thumb/libg.a(lib_a-strrchr.o)
 .comment       0x0000000000000044       0x23 /home/ulises/devkitPro/devkitARM/bin/../lib/gcc/arm-none-eabi/4.9.2/../../../../arm-none-eabi/lib/thumb/libg.a(lib_a-strtol.o)
 .comment       0x0000000000000044       0x23 /home/ulises/devkitPro/devkitARM/bin/../lib/gcc/arm-none-eabi/4.9.2/../../../../arm-none-eabi/lib/thumb/libg.a(lib_a-svfiscanf.o)
 .comment       0x0000000000000044       0x23 /home/ulises/devkitPro/devkitARM/bin/../lib/gcc/arm-none-eabi/4.9.2/../../../../arm-none-eabi/lib/thumb/libg.a(lib_a-svfprintf.o)
 .comment       0x0000000000000044       0x23 /home/ulises/devkitPro/devkitARM/bin/../lib/gcc/arm-none-eabi/4.9.2/../../../../arm-none-eabi/lib/thumb/libg.a(lib_a-sysclose.o)
 .comment       0x0000000000000044       0x23 /home/ulises/devkitPro/devkitARM/bin/../lib/gcc/arm-none-eabi/4.9.2/../../../../arm-none-eabi/lib/thumb/libg.a(lib_a-syslseek.o)
 .comment       0x0000000000000044       0x23 /home/ulises/devkitPro/devkitARM/bin/../lib/gcc/arm-none-eabi/4.9.2/../../../../arm-none-eabi/lib/thumb/libg.a(lib_a-sysopen.o)
 .comment       0x0000000000000044       0x23 /home/ulises/devkitPro/devkitARM/bin/../lib/gcc/arm-none-eabi/4.9.2/../../../../arm-none-eabi/lib/thumb/libg.a(lib_a-sysread.o)
 .comment       0x0000000000000044       0x23 /home/ulises/devkitPro/devkitARM/bin/../lib/gcc/arm-none-eabi/4.9.2/../../../../arm-none-eabi/lib/thumb/libg.a(lib_a-time.o)
 .comment       0x0000000000000044       0x23 /home/ulises/devkitPro/devkitARM/bin/../lib/gcc/arm-none-eabi/4.9.2/../../../../arm-none-eabi/lib/thumb/libg.a(lib_a-towlower.o)
 .comment       0x0000000000000044       0x23 /home/ulises/devkitPro/devkitARM/bin/../lib/gcc/arm-none-eabi/4.9.2/../../../../arm-none-eabi/lib/thumb/libg.a(lib_a-towupper.o)
 .comment       0x0000000000000044       0x23 /home/ulises/devkitPro/devkitARM/bin/../lib/gcc/arm-none-eabi/4.9.2/../../../../arm-none-eabi/lib/thumb/libg.a(lib_a-tzcalc_limits.o)
 .comment       0x0000000000000044       0x23 /home/ulises/devkitPro/devkitARM/bin/../lib/gcc/arm-none-eabi/4.9.2/../../../../arm-none-eabi/lib/thumb/libg.a(lib_a-tzlock.o)
 .comment       0x0000000000000044       0x23 /home/ulises/devkitPro/devkitARM/bin/../lib/gcc/arm-none-eabi/4.9.2/../../../../arm-none-eabi/lib/thumb/libg.a(lib_a-tzvars.o)
 .comment       0x0000000000000044       0x23 /home/ulises/devkitPro/devkitARM/bin/../lib/gcc/arm-none-eabi/4.9.2/../../../../arm-none-eabi/lib/thumb/libg.a(lib_a-ungetc.o)
 .comment       0x0000000000000044       0x23 /home/ulises/devkitPro/devkitARM/bin/../lib/gcc/arm-none-eabi/4.9.2/../../../../arm-none-eabi/lib/thumb/libg.a(lib_a-vfiprintf.o)
 .comment       0x0000000000000044       0x23 /home/ulises/devkitPro/devkitARM/bin/../lib/gcc/arm-none-eabi/4.9.2/../../../../arm-none-eabi/lib/thumb/libg.a(lib_a-wcrtomb.o)
 .comment       0x0000000000000044       0x23 /home/ulises/devkitPro/devkitARM/bin/../lib/gcc/arm-none-eabi/4.9.2/../../../../arm-none-eabi/lib/thumb/libg.a(lib_a-wcsrtombs.o)
 .comment       0x0000000000000044       0x23 /home/ulises/devkitPro/devkitARM/bin/../lib/gcc/arm-none-eabi/4.9.2/../../../../arm-none-eabi/lib/thumb/libg.a(lib_a-wctob.o)
 .comment       0x0000000000000044       0x23 /home/ulises/devkitPro/devkitARM/bin/../lib/gcc/arm-none-eabi/4.9.2/../../../../arm-none-eabi/lib/thumb/libg.a(lib_a-wctomb_r.o)
 .comment       0x0000000000000044       0x23 /home/ulises/devkitPro/devkitARM/bin/../lib/gcc/arm-none-eabi/4.9.2/../../../../arm-none-eabi/lib/thumb/libg.a(lib_a-wsetup.o)
 .comment       0x0000000000000044       0x23 /home/ulises/devkitPro/devkitARM/bin/../lib/gcc/arm-none-eabi/4.9.2/../../../../arm-none-eabi/lib/thumb/libg.a(lib_a-div.o)
 .comment       0x0000000000000044       0x23 /home/ulises/devkitPro/devkitARM/bin/../lib/gcc/arm-none-eabi/4.9.2/../../../../arm-none-eabi/lib/thumb/libg.a(lib_a-dtoa.o)
 .comment       0x0000000000000044       0x23 /home/ulises/devkitPro/devkitARM/bin/../lib/gcc/arm-none-eabi/4.9.2/../../../../arm-none-eabi/lib/thumb/libg.a(lib_a-flags.o)
 .comment       0x0000000000000044       0x23 /home/ulises/devkitPro/devkitARM/bin/../lib/gcc/arm-none-eabi/4.9.2/../../../../arm-none-eabi/lib/thumb/libg.a(lib_a-fputwc.o)
 .comment       0x0000000000000044       0x23 /home/ulises/devkitPro/devkitARM/bin/../lib/gcc/arm-none-eabi/4.9.2/../../../../arm-none-eabi/lib/thumb/libg.a(lib_a-fvwrite.o)
 .comment       0x0000000000000044       0x23 /home/ulises/devkitPro/devkitARM/bin/../lib/gcc/arm-none-eabi/4.9.2/../../../../arm-none-eabi/lib/thumb/libg.a(lib_a-getenv_r.o)
 .comment       0x0000000000000044       0x23 /home/ulises/devkitPro/devkitARM/bin/../lib/gcc/arm-none-eabi/4.9.2/../../../../arm-none-eabi/lib/thumb/libg.a(lib_a-gettzinfo.o)
 .comment       0x0000000000000044       0x23 /home/ulises/devkitPro/devkitARM/bin/../lib/gcc/arm-none-eabi/4.9.2/../../../../arm-none-eabi/lib/thumb/libg.a(lib_a-gmtime_r.o)
 .comment       0x0000000000000044       0x23 /home/ulises/devkitPro/devkitARM/bin/../lib/gcc/arm-none-eabi/4.9.2/../../../../arm-none-eabi/lib/thumb/libg.a(lib_a-iswspace.o)
 .comment       0x0000000000000044       0x23 /home/ulises/devkitPro/devkitARM/bin/../lib/gcc/arm-none-eabi/4.9.2/../../../../arm-none-eabi/lib/thumb/libg.a(lib_a-jp2uc.o)
 .comment       0x0000000000000044       0x23 /home/ulises/devkitPro/devkitARM/bin/../lib/gcc/arm-none-eabi/4.9.2/../../../../arm-none-eabi/lib/thumb/libg.a(lib_a-mbsnrtowcs.o)
 .comment       0x0000000000000044       0x23 /home/ulises/devkitPro/devkitARM/bin/../lib/gcc/arm-none-eabi/4.9.2/../../../../arm-none-eabi/lib/thumb/libg.a(lib_a-memchr.o)
 .comment       0x0000000000000044       0x23 /home/ulises/devkitPro/devkitARM/bin/../lib/gcc/arm-none-eabi/4.9.2/../../../../arm-none-eabi/lib/thumb/libg.a(lib_a-mprec.o)
 .comment       0x0000000000000044       0x23 /home/ulises/devkitPro/devkitARM/bin/../lib/gcc/arm-none-eabi/4.9.2/../../../../arm-none-eabi/lib/thumb/libg.a(lib_a-sccl.o)
 .comment       0x0000000000000044       0x23 /home/ulises/devkitPro/devkitARM/bin/../lib/gcc/arm-none-eabi/4.9.2/../../../../arm-none-eabi/lib/thumb/libg.a(lib_a-s_fpclassify.o)
 .comment       0x0000000000000044       0x23 /home/ulises/devkitPro/devkitARM/bin/../lib/gcc/arm-none-eabi/4.9.2/../../../../arm-none-eabi/lib/thumb/libg.a(lib_a-s_frexp.o)
 .comment       0x0000000000000044       0x23 /home/ulises/devkitPro/devkitARM/bin/../lib/gcc/arm-none-eabi/4.9.2/../../../../arm-none-eabi/lib/thumb/libg.a(lib_a-strtoll_r.o)
 .comment       0x0000000000000044       0x23 /home/ulises/devkitPro/devkitARM/bin/../lib/gcc/arm-none-eabi/4.9.2/../../../../arm-none-eabi/lib/thumb/libg.a(lib_a-strtoull_r.o)
 .comment       0x0000000000000044       0x23 /home/ulises/devkitPro/devkitARM/bin/../lib/gcc/arm-none-eabi/4.9.2/../../../../arm-none-eabi/lib/thumb/libg.a(lib_a-strtoul.o)
 .comment       0x0000000000000044       0x23 /home/ulises/devkitPro/devkitARM/bin/../lib/gcc/arm-none-eabi/4.9.2/../../../../arm-none-eabi/lib/thumb/libg.a(lib_a-svfiprintf.o)
 .comment       0x0000000000000044       0x23 /home/ulises/devkitPro/devkitARM/bin/../lib/gcc/arm-none-eabi/4.9.2/../../../../arm-none-eabi/lib/thumb/libg.a(lib_a-wbuf.o)
 .comment       0x0000000000000044       0x23 /home/ulises/devkitPro/devkitARM/bin/../lib/gcc/arm-none-eabi/4.9.2/../../../../arm-none-eabi/lib/thumb/libg.a(lib_a-wcsnrtombs.o)
 .comment       0x0000000000000044       0x23 /home/ulises/devkitPro/devkitARM/bin/../lib/gcc/arm-none-eabi/4.9.2/../../../../arm-none-eabi/lib/thumb/libg.a(lib_a-environ.o)
 .comment       0x0000000000000044       0x23 /home/ulises/devkitPro/devkitARM/bin/../lib/gcc/arm-none-eabi/4.9.2/../../../../arm-none-eabi/lib/thumb/libg.a(lib_a-envlock.o)
 .comment       0x0000000000000044       0x23 /home/ulises/devkitPro/devkitARM/bin/../lib/gcc/arm-none-eabi/4.9.2/../../../../arm-none-eabi/lib/thumb/libsysbase.a(iosupport.o)
 .comment       0x0000000000000044       0x23 /home/ulises/devkitPro/devkitARM/bin/../lib/gcc/arm-none-eabi/4.9.2/../../../../arm-none-eabi/lib/thumb/libsysbase.a(close.o)
 .comment       0x0000000000000044       0x23 /home/ulises/devkitPro/devkitARM/bin/../lib/gcc/arm-none-eabi/4.9.2/../../../../arm-none-eabi/lib/thumb/libsysbase.a(fstat.o)
 .comment       0x0000000000000044       0x23 /home/ulises/devkitPro/devkitARM/bin/../lib/gcc/arm-none-eabi/4.9.2/../../../../arm-none-eabi/lib/thumb/libsysbase.a(gettod.o)
 .comment       0x0000000000000044       0x23 /home/ulises/devkitPro/devkitARM/bin/../lib/gcc/arm-none-eabi/4.9.2/../../../../arm-none-eabi/lib/thumb/libsysbase.a(isatty.o)
 .comment       0x0000000000000044       0x23 /home/ulises/devkitPro/devkitARM/bin/../lib/gcc/arm-none-eabi/4.9.2/../../../../arm-none-eabi/lib/thumb/libsysbase.a(lseek.o)
 .comment       0x0000000000000044       0x23 /home/ulises/devkitPro/devkitARM/bin/../lib/gcc/arm-none-eabi/4.9.2/../../../../arm-none-eabi/lib/thumb/libsysbase.a(open.o)
 .comment       0x0000000000000044       0x23 /home/ulises/devkitPro/devkitARM/bin/../lib/gcc/arm-none-eabi/4.9.2/../../../../arm-none-eabi/lib/thumb/libsysbase.a(read.o)
 .comment       0x0000000000000044       0x23 /home/ulises/devkitPro/devkitARM/bin/../lib/gcc/arm-none-eabi/4.9.2/../../../../arm-none-eabi/lib/thumb/libsysbase.a(sbrk.o)
 .comment       0x0000000000000044       0x23 /home/ulises/devkitPro/devkitARM/bin/../lib/gcc/arm-none-eabi/4.9.2/../../../../arm-none-eabi/lib/thumb/libsysbase.a(write.o)
 .comment       0x0000000000000044       0x23 /home/ulises/devkitPro/devkitARM/bin/../lib/gcc/arm-none-eabi/4.9.2/../../../../arm-none-eabi/lib/thumb/libsysbase.a(malloc_vars.o)
 .comment       0x0000000000000044       0x23 /home/ulises/devkitPro/devkitARM/bin/../lib/gcc/arm-none-eabi/4.9.2/../../../../arm-none-eabi/lib/thumb/libsysbase.a(chdir.o)
 .comment       0x0000000000000044       0x23 /home/ulises/devkitPro/devkitARM/bin/../lib/gcc/arm-none-eabi/4.9.2/../../../../arm-none-eabi/lib/thumb/libsysbase.a(build_argv.o)
 .comment       0x0000000000000044       0x23 /home/ulises/devkitPro/devkitARM/bin/../lib/gcc/arm-none-eabi/4.9.2/../../../../arm-none-eabi/lib/thumb/libsysbase.a(flock.o)
 .comment       0x0000000000000044       0x23 /home/ulises/devkitPro/devkitARM/bin/../lib/gcc/arm-none-eabi/4.9.2/../../../../arm-none-eabi/lib/thumb/libsysbase.a(syscall_support.o)
 .comment       0x0000000000000044       0x23 /home/ulises/devkitPro/devkitARM/bin/../lib/gcc/arm-none-eabi/4.9.2/../../../../arm-none-eabi/lib/thumb/libsysbase.a(handle_manager.o)
 .comment       0x0000000000000044       0x23 /home/ulises/devkitPro/devkitARM/bin/../lib/gcc/arm-none-eabi/4.9.2/../../../../arm-none-eabi/lib/thumb/libsysbase.a(getreent.o)
 .comment       0x0000000000000044       0x23 /home/ulises/devkitPro/devkitARM/bin/../lib/gcc/arm-none-eabi/4.9.2/thumb/libgcc.a(bpabi.o)
 .comment       0x0000000000000044       0x23 /home/ulises/devkitPro/devkitARM/bin/../lib/gcc/arm-none-eabi/4.9.2/thumb/libgcc.a(_divdi3.o)
 .comment       0x0000000000000044       0x23 /home/ulises/devkitPro/devkitARM/bin/../lib/gcc/arm-none-eabi/4.9.2/thumb/libgcc.a(_udivdi3.o)
 .comment       0x0000000000000044       0x23 /home/ulises/devkitPro/devkitARM/bin/../lib/gcc/arm-none-eabi/4.9.2/../../../../arm-none-eabi/lib/thumb/libg.a(lib_a-errno.o)
 .comment       0x0000000000000044       0x23 /home/ulises/devkitPro/devkitARM/bin/../lib/gcc/arm-none-eabi/4.9.2/thumb/crtend.o

.ARM.attributes
                0x0000000000000000       0x2f
 .ARM.attributes
                0x0000000000000000       0x21 /home/ulises/devkitPro/devkitARM/bin/../lib/gcc/arm-none-eabi/4.9.2/../../../../arm-none-eabi/lib/thumb/ds_arm9_crt0.o
 .ARM.attributes
                0x0000000000000021       0x16 /home/ulises/devkitPro/devkitARM/bin/../lib/gcc/arm-none-eabi/4.9.2/thumb/crti.o
 .ARM.attributes
                0x0000000000000037       0x30 /home/ulises/devkitPro/devkitARM/bin/../lib/gcc/arm-none-eabi/4.9.2/thumb/crtbegin.o
 .ARM.attributes
                0x0000000000000067       0x27 main.o
 .ARM.attributes
                0x000000000000008e       0x29 /home/ulises/Escritorio/dbz/nflib/lib/libnflib.a(nf_2d.o)
 .ARM.attributes
                0x00000000000000b7       0x29 /home/ulises/Escritorio/dbz/nflib/lib/libnflib.a(nf_basic.o)
 .ARM.attributes
                0x00000000000000e0       0x29 /home/ulises/Escritorio/dbz/nflib/lib/libnflib.a(nf_sound.o)
 .ARM.attributes
                0x0000000000000109       0x29 /home/ulises/Escritorio/dbz/nflib/lib/libnflib.a(nf_sprite256.o)
 .ARM.attributes
                0x0000000000000132       0x29 /home/ulises/Escritorio/dbz/nflib/lib/libnflib.a(nf_tiledbg.o)
 .ARM.attributes
                0x000000000000015b       0x27 /home/ulises/devkitPro/libnds/lib/libfilesystem.a(nitrofs.o)
 .ARM.attributes
                0x0000000000000182       0x27 /home/ulises/devkitPro/libnds/lib/libfat.a(libfat.o)
 .ARM.attributes
                0x00000000000001a9       0x27 /home/ulises/devkitPro/libnds/lib/libfat.a(partition.o)
 .ARM.attributes
                0x00000000000001d0       0x27 /home/ulises/devkitPro/libnds/lib/libfat.a(lock.o)
 .ARM.attributes
                0x00000000000001f7       0x27 /home/ulises/devkitPro/libnds/lib/libfat.a(fatdir.o)
 .ARM.attributes
                0x000000000000021e       0x27 /home/ulises/devkitPro/libnds/lib/libfat.a(cache.o)
 .ARM.attributes
                0x0000000000000245       0x27 /home/ulises/devkitPro/libnds/lib/libfat.a(fatfile.o)
 .ARM.attributes
                0x000000000000026c       0x27 /home/ulises/devkitPro/libnds/lib/libfat.a(disc.o)
 .ARM.attributes
                0x0000000000000293       0x27 /home/ulises/devkitPro/libnds/lib/libfat.a(file_allocation_table.o)
 .ARM.attributes
                0x00000000000002ba       0x27 /home/ulises/devkitPro/libnds/lib/libfat.a(filetime.o)
 .ARM.attributes
                0x00000000000002e1       0x27 /home/ulises/devkitPro/libnds/lib/libfat.a(directory.o)
 .ARM.attributes
                0x0000000000000308       0x27 /home/ulises/devkitPro/libnds/lib/libnds9.a(keys.o)
 .ARM.attributes
                0x000000000000032f       0x27 /home/ulises/devkitPro/libnds/lib/libnds9.a(sprite.o)
 .ARM.attributes
                0x0000000000000356       0x27 /home/ulises/devkitPro/libnds/lib/libnds9.a(sound.o)
 .ARM.attributes
                0x000000000000037d       0x27 /home/ulises/devkitPro/libnds/lib/libnds9.a(trig.o)
 .ARM.attributes
                0x00000000000003a4       0x27 /home/ulises/devkitPro/libnds/lib/libnds9.a(console.o)
 .ARM.attributes
                0x00000000000003cb       0x27 /home/ulises/devkitPro/libnds/lib/libnds9.a(sprite_alloc.o)
 .ARM.attributes
                0x00000000000003f2       0x27 /home/ulises/devkitPro/libnds/lib/libnds9.a(touch.o)
 .ARM.attributes
                0x0000000000000419       0x27 /home/ulises/devkitPro/libnds/lib/libnds9.a(video.o)
 .ARM.attributes
                0x0000000000000440       0x27 /home/ulises/devkitPro/libnds/lib/libnds9.a(background.o)
 .ARM.attributes
                0x0000000000000467       0x27 /home/ulises/devkitPro/libnds/lib/libnds9.a(dldi.o)
 .ARM.attributes
                0x000000000000048e       0x27 /home/ulises/devkitPro/libnds/lib/libnds9.a(dsi_sd.o)
 .ARM.attributes
                0x00000000000004b5       0x27 /home/ulises/devkitPro/libnds/lib/libnds9.a(initSystem.o)
 .ARM.attributes
                0x00000000000004dc       0x27 /home/ulises/devkitPro/libnds/lib/libnds9.a(fifosystem.o)
 .ARM.attributes
                0x0000000000000503       0x27 /home/ulises/devkitPro/libnds/lib/libnds9.a(card.o)
 .ARM.attributes
                0x000000000000052a       0x27 /home/ulises/devkitPro/libnds/lib/libnds9.a(libnds_exit.arm.o)
 .ARM.attributes
                0x0000000000000551       0x27 /home/ulises/devkitPro/libnds/lib/libnds9.a(interrupts.o)
 .ARM.attributes
                0x0000000000000578       0x1b /home/ulises/devkitPro/libnds/lib/libnds9.a(dcache.o)
 .ARM.attributes
                0x0000000000000593       0x1b /home/ulises/devkitPro/libnds/lib/libnds9.a(dldi_stub.o)
 .ARM.attributes
                0x00000000000005ae       0x21 /home/ulises/devkitPro/libnds/lib/libnds9.a(mpu_setup.o)
 .ARM.attributes
                0x00000000000005cf       0x21 /home/ulises/devkitPro/libnds/lib/libnds9.a(swiSoftReset.o)
 .ARM.attributes
                0x00000000000005f0       0x1b /home/ulises/devkitPro/libnds/lib/libnds9.a(debugprint.o)
 .ARM.attributes
                0x000000000000060b       0x1b /home/ulises/devkitPro/libnds/lib/libnds9.a(biosCalls.o)
 .ARM.attributes
                0x0000000000000626       0x1b /home/ulises/devkitPro/libnds/lib/libnds9.a(interruptDispatcher.o)
 .ARM.attributes
                0x0000000000000641       0x14 /home/ulises/devkitPro/libnds/lib/libnds9.a(default_font.bin.o)
 .ARM.attributes
                0x0000000000000655       0x27 /home/ulises/devkitPro/libnds/lib/libnds9.a(system.o)
 .ARM.attributes
                0x000000000000067c       0x27 /home/ulises/devkitPro/libnds/lib/libnds9.a(timeSupport.o)
 .ARM.attributes
                0x00000000000006a3       0x18 /home/ulises/devkitPro/devkitARM/bin/../lib/gcc/arm-none-eabi/4.9.2/thumb/libgcc.a(_udivsi3.o)
 .ARM.attributes
                0x00000000000006bb       0x18 /home/ulises/devkitPro/devkitARM/bin/../lib/gcc/arm-none-eabi/4.9.2/thumb/libgcc.a(_divsi3.o)
 .ARM.attributes
                0x00000000000006d3       0x16 /home/ulises/devkitPro/devkitARM/bin/../lib/gcc/arm-none-eabi/4.9.2/thumb/libgcc.a(_dvmd_tls.o)
 .ARM.attributes
                0x00000000000006e9       0x30 /home/ulises/devkitPro/devkitARM/bin/../lib/gcc/arm-none-eabi/4.9.2/thumb/libgcc.a(_muldi3.o)
 .ARM.attributes
                0x0000000000000719       0x30 /home/ulises/devkitPro/devkitARM/bin/../lib/gcc/arm-none-eabi/4.9.2/../../../../arm-none-eabi/lib/thumb/libg.a(lib_a-bsearch.o)
 .ARM.attributes
                0x0000000000000749       0x30 /home/ulises/devkitPro/devkitARM/bin/../lib/gcc/arm-none-eabi/4.9.2/../../../../arm-none-eabi/lib/thumb/libg.a(lib_a-calloc.o)
 .ARM.attributes
                0x0000000000000779       0x30 /home/ulises/devkitPro/devkitARM/bin/../lib/gcc/arm-none-eabi/4.9.2/../../../../arm-none-eabi/lib/thumb/libg.a(lib_a-callocr.o)
 .ARM.attributes
                0x00000000000007a9       0x30 /home/ulises/devkitPro/devkitARM/bin/../lib/gcc/arm-none-eabi/4.9.2/../../../../arm-none-eabi/lib/thumb/libg.a(lib_a-ctype_.o)
 .ARM.attributes
                0x00000000000007d9       0x30 /home/ulises/devkitPro/devkitARM/bin/../lib/gcc/arm-none-eabi/4.9.2/../../../../arm-none-eabi/lib/thumb/libg.a(lib_a-fclose.o)
 .ARM.attributes
                0x0000000000000809       0x30 /home/ulises/devkitPro/devkitARM/bin/../lib/gcc/arm-none-eabi/4.9.2/../../../../arm-none-eabi/lib/thumb/libg.a(lib_a-fflush.o)
 .ARM.attributes
                0x0000000000000839       0x30 /home/ulises/devkitPro/devkitARM/bin/../lib/gcc/arm-none-eabi/4.9.2/../../../../arm-none-eabi/lib/thumb/libg.a(lib_a-findfp.o)
 .ARM.attributes
                0x0000000000000869       0x30 /home/ulises/devkitPro/devkitARM/bin/../lib/gcc/arm-none-eabi/4.9.2/../../../../arm-none-eabi/lib/thumb/libg.a(lib_a-fopen.o)
 .ARM.attributes
                0x0000000000000899       0x30 /home/ulises/devkitPro/devkitARM/bin/../lib/gcc/arm-none-eabi/4.9.2/../../../../arm-none-eabi/lib/thumb/libg.a(lib_a-fread.o)
 .ARM.attributes
                0x00000000000008c9       0x30 /home/ulises/devkitPro/devkitARM/bin/../lib/gcc/arm-none-eabi/4.9.2/../../../../arm-none-eabi/lib/thumb/libg.a(lib_a-freer.o)
 .ARM.attributes
                0x00000000000008f9       0x30 /home/ulises/devkitPro/devkitARM/bin/../lib/gcc/arm-none-eabi/4.9.2/../../../../arm-none-eabi/lib/thumb/libg.a(lib_a-fseek.o)
 .ARM.attributes
                0x0000000000000929       0x30 /home/ulises/devkitPro/devkitARM/bin/../lib/gcc/arm-none-eabi/4.9.2/../../../../arm-none-eabi/lib/thumb/libg.a(lib_a-fseeko.o)
 .ARM.attributes
                0x0000000000000959       0x30 /home/ulises/devkitPro/devkitARM/bin/../lib/gcc/arm-none-eabi/4.9.2/../../../../arm-none-eabi/lib/thumb/libg.a(lib_a-ftell.o)
 .ARM.attributes
                0x0000000000000989       0x30 /home/ulises/devkitPro/devkitARM/bin/../lib/gcc/arm-none-eabi/4.9.2/../../../../arm-none-eabi/lib/thumb/libg.a(lib_a-ftello.o)
 .ARM.attributes
                0x00000000000009b9       0x30 /home/ulises/devkitPro/devkitARM/bin/../lib/gcc/arm-none-eabi/4.9.2/../../../../arm-none-eabi/lib/thumb/libg.a(lib_a-fwalk.o)
 .ARM.attributes
                0x00000000000009e9       0x30 /home/ulises/devkitPro/devkitARM/bin/../lib/gcc/arm-none-eabi/4.9.2/../../../../arm-none-eabi/lib/thumb/libg.a(lib_a-impure.o)
 .ARM.attributes
                0x0000000000000a19       0x30 /home/ulises/devkitPro/devkitARM/bin/../lib/gcc/arm-none-eabi/4.9.2/../../../../arm-none-eabi/lib/thumb/libg.a(lib_a-init.o)
 .ARM.attributes
                0x0000000000000a49       0x30 /home/ulises/devkitPro/devkitARM/bin/../lib/gcc/arm-none-eabi/4.9.2/../../../../arm-none-eabi/lib/thumb/libg.a(lib_a-iprintf.o)
 .ARM.attributes
                0x0000000000000a79       0x30 /home/ulises/devkitPro/devkitARM/bin/../lib/gcc/arm-none-eabi/4.9.2/../../../../arm-none-eabi/lib/thumb/libg.a(lib_a-lcltime_r.o)
 .ARM.attributes
                0x0000000000000aa9       0x30 /home/ulises/devkitPro/devkitARM/bin/../lib/gcc/arm-none-eabi/4.9.2/../../../../arm-none-eabi/lib/thumb/libg.a(lib_a-locale.o)
 .ARM.attributes
                0x0000000000000ad9       0x30 /home/ulises/devkitPro/devkitARM/bin/../lib/gcc/arm-none-eabi/4.9.2/../../../../arm-none-eabi/lib/thumb/libg.a(lib_a-makebuf.o)
 .ARM.attributes
                0x0000000000000b09       0x30 /home/ulises/devkitPro/devkitARM/bin/../lib/gcc/arm-none-eabi/4.9.2/../../../../arm-none-eabi/lib/thumb/libg.a(lib_a-malloc.o)
 .ARM.attributes
                0x0000000000000b39       0x30 /home/ulises/devkitPro/devkitARM/bin/../lib/gcc/arm-none-eabi/4.9.2/../../../../arm-none-eabi/lib/thumb/libg.a(lib_a-mallocr.o)
 .ARM.attributes
                0x0000000000000b69       0x30 /home/ulises/devkitPro/devkitARM/bin/../lib/gcc/arm-none-eabi/4.9.2/../../../../arm-none-eabi/lib/thumb/libg.a(lib_a-mbrtowc.o)
 .ARM.attributes
                0x0000000000000b99       0x30 /home/ulises/devkitPro/devkitARM/bin/../lib/gcc/arm-none-eabi/4.9.2/../../../../arm-none-eabi/lib/thumb/libg.a(lib_a-mbsrtowcs.o)
 .ARM.attributes
                0x0000000000000bc9       0x30 /home/ulises/devkitPro/devkitARM/bin/../lib/gcc/arm-none-eabi/4.9.2/../../../../arm-none-eabi/lib/thumb/libg.a(lib_a-mbtowc_r.o)
 .ARM.attributes
                0x0000000000000bf9       0x30 /home/ulises/devkitPro/devkitARM/bin/../lib/gcc/arm-none-eabi/4.9.2/../../../../arm-none-eabi/lib/thumb/libg.a(lib_a-memcmp.o)
 .ARM.attributes
                0x0000000000000c29       0x30 /home/ulises/devkitPro/devkitARM/bin/../lib/gcc/arm-none-eabi/4.9.2/../../../../arm-none-eabi/lib/thumb/libg.a(lib_a-memcpy.o)
 .ARM.attributes
                0x0000000000000c59       0x30 /home/ulises/devkitPro/devkitARM/bin/../lib/gcc/arm-none-eabi/4.9.2/../../../../arm-none-eabi/lib/thumb/libg.a(lib_a-memmove.o)
 .ARM.attributes
                0x0000000000000c89       0x30 /home/ulises/devkitPro/devkitARM/bin/../lib/gcc/arm-none-eabi/4.9.2/../../../../arm-none-eabi/lib/thumb/libg.a(lib_a-memset.o)
 .ARM.attributes
                0x0000000000000cb9       0x30 /home/ulises/devkitPro/devkitARM/bin/../lib/gcc/arm-none-eabi/4.9.2/../../../../arm-none-eabi/lib/thumb/libg.a(lib_a-mktime.o)
 .ARM.attributes
                0x0000000000000ce9       0x30 /home/ulises/devkitPro/devkitARM/bin/../lib/gcc/arm-none-eabi/4.9.2/../../../../arm-none-eabi/lib/thumb/libg.a(lib_a-mlock.o)
 .ARM.attributes
                0x0000000000000d19       0x30 /home/ulises/devkitPro/devkitARM/bin/../lib/gcc/arm-none-eabi/4.9.2/../../../../arm-none-eabi/lib/thumb/libg.a(lib_a-month_lengths.o)
 .ARM.attributes
                0x0000000000000d49       0x30 /home/ulises/devkitPro/devkitARM/bin/../lib/gcc/arm-none-eabi/4.9.2/../../../../arm-none-eabi/lib/thumb/libg.a(lib_a-realloc.o)
 .ARM.attributes
                0x0000000000000d79       0x30 /home/ulises/devkitPro/devkitARM/bin/../lib/gcc/arm-none-eabi/4.9.2/../../../../arm-none-eabi/lib/thumb/libg.a(lib_a-reallocr.o)
 .ARM.attributes
                0x0000000000000da9       0x30 /home/ulises/devkitPro/devkitARM/bin/../lib/gcc/arm-none-eabi/4.9.2/../../../../arm-none-eabi/lib/thumb/libg.a(lib_a-refill.o)
 .ARM.attributes
                0x0000000000000dd9       0x30 /home/ulises/devkitPro/devkitARM/bin/../lib/gcc/arm-none-eabi/4.9.2/../../../../arm-none-eabi/lib/thumb/libg.a(lib_a-rewind.o)
 .ARM.attributes
                0x0000000000000e09       0x30 /home/ulises/devkitPro/devkitARM/bin/../lib/gcc/arm-none-eabi/4.9.2/../../../../arm-none-eabi/lib/thumb/libg.a(lib_a-setvbuf.o)
 .ARM.attributes
                0x0000000000000e39       0x30 /home/ulises/devkitPro/devkitARM/bin/../lib/gcc/arm-none-eabi/4.9.2/../../../../arm-none-eabi/lib/thumb/libg.a(lib_a-siscanf.o)
 .ARM.attributes
                0x0000000000000e69       0x30 /home/ulises/devkitPro/devkitARM/bin/../lib/gcc/arm-none-eabi/4.9.2/../../../../arm-none-eabi/lib/thumb/libg.a(lib_a-sprintf.o)
 .ARM.attributes
                0x0000000000000e99       0x30 /home/ulises/devkitPro/devkitARM/bin/../lib/gcc/arm-none-eabi/4.9.2/../../../../arm-none-eabi/lib/thumb/libg.a(lib_a-stdio.o)
 .ARM.attributes
                0x0000000000000ec9       0x30 /home/ulises/devkitPro/devkitARM/bin/../lib/gcc/arm-none-eabi/4.9.2/../../../../arm-none-eabi/lib/thumb/libg.a(lib_a-stpcpy.o)
 .ARM.attributes
                0x0000000000000ef9       0x30 /home/ulises/devkitPro/devkitARM/bin/../lib/gcc/arm-none-eabi/4.9.2/../../../../arm-none-eabi/lib/thumb/libg.a(lib_a-strcasecmp.o)
 .ARM.attributes
                0x0000000000000f29       0x30 /home/ulises/devkitPro/devkitARM/bin/../lib/gcc/arm-none-eabi/4.9.2/../../../../arm-none-eabi/lib/thumb/libg.a(lib_a-strcat.o)
 .ARM.attributes
                0x0000000000000f59       0x30 /home/ulises/devkitPro/devkitARM/bin/../lib/gcc/arm-none-eabi/4.9.2/../../../../arm-none-eabi/lib/thumb/libg.a(lib_a-strchr.o)
 .ARM.attributes
                0x0000000000000f89       0x16 /home/ulises/devkitPro/devkitARM/bin/../lib/gcc/arm-none-eabi/4.9.2/../../../../arm-none-eabi/lib/thumb/libg.a(lib_a-strcmp.o)
 .ARM.attributes
                0x0000000000000f9f       0x30 /home/ulises/devkitPro/devkitARM/bin/../lib/gcc/arm-none-eabi/4.9.2/../../../../arm-none-eabi/lib/thumb/libg.a(lib_a-strcpy.o)
 .ARM.attributes
                0x0000000000000fcf       0x30 /home/ulises/devkitPro/devkitARM/bin/../lib/gcc/arm-none-eabi/4.9.2/../../../../arm-none-eabi/lib/thumb/libg.a(lib_a-strdup.o)
 .ARM.attributes
                0x0000000000000fff       0x30 /home/ulises/devkitPro/devkitARM/bin/../lib/gcc/arm-none-eabi/4.9.2/../../../../arm-none-eabi/lib/thumb/libg.a(lib_a-strdup_r.o)
 .ARM.attributes
                0x000000000000102f       0x30 /home/ulises/devkitPro/devkitARM/bin/../lib/gcc/arm-none-eabi/4.9.2/../../../../arm-none-eabi/lib/thumb/libg.a(lib_a-strlcpy.o)
 .ARM.attributes
                0x000000000000105f       0x30 /home/ulises/devkitPro/devkitARM/bin/../lib/gcc/arm-none-eabi/4.9.2/../../../../arm-none-eabi/lib/thumb/libg.a(lib_a-strlen.o)
 .ARM.attributes
                0x000000000000108f       0x30 /home/ulises/devkitPro/devkitARM/bin/../lib/gcc/arm-none-eabi/4.9.2/../../../../arm-none-eabi/lib/thumb/libg.a(lib_a-strncasecmp.o)
 .ARM.attributes
                0x00000000000010bf       0x30 /home/ulises/devkitPro/devkitARM/bin/../lib/gcc/arm-none-eabi/4.9.2/../../../../arm-none-eabi/lib/thumb/libg.a(lib_a-strncmp.o)
 .ARM.attributes
                0x00000000000010ef       0x30 /home/ulises/devkitPro/devkitARM/bin/../lib/gcc/arm-none-eabi/4.9.2/../../../../arm-none-eabi/lib/thumb/libg.a(lib_a-strncpy.o)
 .ARM.attributes
                0x000000000000111f       0x30 /home/ulises/devkitPro/devkitARM/bin/../lib/gcc/arm-none-eabi/4.9.2/../../../../arm-none-eabi/lib/thumb/libg.a(lib_a-strnlen.o)
 .ARM.attributes
                0x000000000000114f       0x30 /home/ulises/devkitPro/devkitARM/bin/../lib/gcc/arm-none-eabi/4.9.2/../../../../arm-none-eabi/lib/thumb/libg.a(lib_a-strpbrk.o)
 .ARM.attributes
                0x000000000000117f       0x30 /home/ulises/devkitPro/devkitARM/bin/../lib/gcc/arm-none-eabi/4.9.2/../../../../arm-none-eabi/lib/thumb/libg.a(lib_a-strrchr.o)
 .ARM.attributes
                0x00000000000011af       0x30 /home/ulises/devkitPro/devkitARM/bin/../lib/gcc/arm-none-eabi/4.9.2/../../../../arm-none-eabi/lib/thumb/libg.a(lib_a-strtol.o)
 .ARM.attributes
                0x00000000000011df       0x30 /home/ulises/devkitPro/devkitARM/bin/../lib/gcc/arm-none-eabi/4.9.2/../../../../arm-none-eabi/lib/thumb/libg.a(lib_a-svfiscanf.o)
 .ARM.attributes
                0x000000000000120f       0x30 /home/ulises/devkitPro/devkitARM/bin/../lib/gcc/arm-none-eabi/4.9.2/../../../../arm-none-eabi/lib/thumb/libg.a(lib_a-svfprintf.o)
 .ARM.attributes
                0x000000000000123f       0x30 /home/ulises/devkitPro/devkitARM/bin/../lib/gcc/arm-none-eabi/4.9.2/../../../../arm-none-eabi/lib/thumb/libg.a(lib_a-sysclose.o)
 .ARM.attributes
                0x000000000000126f       0x30 /home/ulises/devkitPro/devkitARM/bin/../lib/gcc/arm-none-eabi/4.9.2/../../../../arm-none-eabi/lib/thumb/libg.a(lib_a-syslseek.o)
 .ARM.attributes
                0x000000000000129f       0x30 /home/ulises/devkitPro/devkitARM/bin/../lib/gcc/arm-none-eabi/4.9.2/../../../../arm-none-eabi/lib/thumb/libg.a(lib_a-sysopen.o)
 .ARM.attributes
                0x00000000000012cf       0x30 /home/ulises/devkitPro/devkitARM/bin/../lib/gcc/arm-none-eabi/4.9.2/../../../../arm-none-eabi/lib/thumb/libg.a(lib_a-sysread.o)
 .ARM.attributes
                0x00000000000012ff       0x30 /home/ulises/devkitPro/devkitARM/bin/../lib/gcc/arm-none-eabi/4.9.2/../../../../arm-none-eabi/lib/thumb/libg.a(lib_a-time.o)
 .ARM.attributes
                0x000000000000132f       0x30 /home/ulises/devkitPro/devkitARM/bin/../lib/gcc/arm-none-eabi/4.9.2/../../../../arm-none-eabi/lib/thumb/libg.a(lib_a-towlower.o)
 .ARM.attributes
                0x000000000000135f       0x30 /home/ulises/devkitPro/devkitARM/bin/../lib/gcc/arm-none-eabi/4.9.2/../../../../arm-none-eabi/lib/thumb/libg.a(lib_a-towupper.o)
 .ARM.attributes
                0x000000000000138f       0x30 /home/ulises/devkitPro/devkitARM/bin/../lib/gcc/arm-none-eabi/4.9.2/../../../../arm-none-eabi/lib/thumb/libg.a(lib_a-tzcalc_limits.o)
 .ARM.attributes
                0x00000000000013bf       0x30 /home/ulises/devkitPro/devkitARM/bin/../lib/gcc/arm-none-eabi/4.9.2/../../../../arm-none-eabi/lib/thumb/libg.a(lib_a-tzlock.o)
 .ARM.attributes
                0x00000000000013ef       0x30 /home/ulises/devkitPro/devkitARM/bin/../lib/gcc/arm-none-eabi/4.9.2/../../../../arm-none-eabi/lib/thumb/libg.a(lib_a-tzvars.o)
 .ARM.attributes
                0x000000000000141f       0x30 /home/ulises/devkitPro/devkitARM/bin/../lib/gcc/arm-none-eabi/4.9.2/../../../../arm-none-eabi/lib/thumb/libg.a(lib_a-ungetc.o)
 .ARM.attributes
                0x000000000000144f       0x30 /home/ulises/devkitPro/devkitARM/bin/../lib/gcc/arm-none-eabi/4.9.2/../../../../arm-none-eabi/lib/thumb/libg.a(lib_a-vfiprintf.o)
 .ARM.attributes
                0x000000000000147f       0x30 /home/ulises/devkitPro/devkitARM/bin/../lib/gcc/arm-none-eabi/4.9.2/../../../../arm-none-eabi/lib/thumb/libg.a(lib_a-wcrtomb.o)
 .ARM.attributes
                0x00000000000014af       0x30 /home/ulises/devkitPro/devkitARM/bin/../lib/gcc/arm-none-eabi/4.9.2/../../../../arm-none-eabi/lib/thumb/libg.a(lib_a-wcsrtombs.o)
 .ARM.attributes
                0x00000000000014df       0x30 /home/ulises/devkitPro/devkitARM/bin/../lib/gcc/arm-none-eabi/4.9.2/../../../../arm-none-eabi/lib/thumb/libg.a(lib_a-wctob.o)
 .ARM.attributes
                0x000000000000150f       0x30 /home/ulises/devkitPro/devkitARM/bin/../lib/gcc/arm-none-eabi/4.9.2/../../../../arm-none-eabi/lib/thumb/libg.a(lib_a-wctomb_r.o)
 .ARM.attributes
                0x000000000000153f       0x30 /home/ulises/devkitPro/devkitARM/bin/../lib/gcc/arm-none-eabi/4.9.2/../../../../arm-none-eabi/lib/thumb/libg.a(lib_a-wsetup.o)
 .ARM.attributes
                0x000000000000156f       0x30 /home/ulises/devkitPro/devkitARM/bin/../lib/gcc/arm-none-eabi/4.9.2/../../../../arm-none-eabi/lib/thumb/libg.a(lib_a-div.o)
 .ARM.attributes
                0x000000000000159f       0x30 /home/ulises/devkitPro/devkitARM/bin/../lib/gcc/arm-none-eabi/4.9.2/../../../../arm-none-eabi/lib/thumb/libg.a(lib_a-dtoa.o)
 .ARM.attributes
                0x00000000000015cf       0x30 /home/ulises/devkitPro/devkitARM/bin/../lib/gcc/arm-none-eabi/4.9.2/../../../../arm-none-eabi/lib/thumb/libg.a(lib_a-flags.o)
 .ARM.attributes
                0x00000000000015ff       0x30 /home/ulises/devkitPro/devkitARM/bin/../lib/gcc/arm-none-eabi/4.9.2/../../../../arm-none-eabi/lib/thumb/libg.a(lib_a-fputwc.o)
 .ARM.attributes
                0x000000000000162f       0x30 /home/ulises/devkitPro/devkitARM/bin/../lib/gcc/arm-none-eabi/4.9.2/../../../../arm-none-eabi/lib/thumb/libg.a(lib_a-fvwrite.o)
 .ARM.attributes
                0x000000000000165f       0x30 /home/ulises/devkitPro/devkitARM/bin/../lib/gcc/arm-none-eabi/4.9.2/../../../../arm-none-eabi/lib/thumb/libg.a(lib_a-getenv_r.o)
 .ARM.attributes
                0x000000000000168f       0x30 /home/ulises/devkitPro/devkitARM/bin/../lib/gcc/arm-none-eabi/4.9.2/../../../../arm-none-eabi/lib/thumb/libg.a(lib_a-gettzinfo.o)
 .ARM.attributes
                0x00000000000016bf       0x30 /home/ulises/devkitPro/devkitARM/bin/../lib/gcc/arm-none-eabi/4.9.2/../../../../arm-none-eabi/lib/thumb/libg.a(lib_a-gmtime_r.o)
 .ARM.attributes
                0x00000000000016ef       0x30 /home/ulises/devkitPro/devkitARM/bin/../lib/gcc/arm-none-eabi/4.9.2/../../../../arm-none-eabi/lib/thumb/libg.a(lib_a-iswspace.o)
 .ARM.attributes
                0x000000000000171f       0x30 /home/ulises/devkitPro/devkitARM/bin/../lib/gcc/arm-none-eabi/4.9.2/../../../../arm-none-eabi/lib/thumb/libg.a(lib_a-jp2uc.o)
 .ARM.attributes
                0x000000000000174f       0x30 /home/ulises/devkitPro/devkitARM/bin/../lib/gcc/arm-none-eabi/4.9.2/../../../../arm-none-eabi/lib/thumb/libg.a(lib_a-mbsnrtowcs.o)
 .ARM.attributes
                0x000000000000177f       0x30 /home/ulises/devkitPro/devkitARM/bin/../lib/gcc/arm-none-eabi/4.9.2/../../../../arm-none-eabi/lib/thumb/libg.a(lib_a-memchr.o)
 .ARM.attributes
                0x00000000000017af       0x30 /home/ulises/devkitPro/devkitARM/bin/../lib/gcc/arm-none-eabi/4.9.2/../../../../arm-none-eabi/lib/thumb/libg.a(lib_a-mprec.o)
 .ARM.attributes
                0x00000000000017df       0x30 /home/ulises/devkitPro/devkitARM/bin/../lib/gcc/arm-none-eabi/4.9.2/../../../../arm-none-eabi/lib/thumb/libg.a(lib_a-sccl.o)
 .ARM.attributes
                0x000000000000180f       0x30 /home/ulises/devkitPro/devkitARM/bin/../lib/gcc/arm-none-eabi/4.9.2/../../../../arm-none-eabi/lib/thumb/libg.a(lib_a-s_fpclassify.o)
 .ARM.attributes
                0x000000000000183f       0x30 /home/ulises/devkitPro/devkitARM/bin/../lib/gcc/arm-none-eabi/4.9.2/../../../../arm-none-eabi/lib/thumb/libg.a(lib_a-s_frexp.o)
 .ARM.attributes
                0x000000000000186f       0x30 /home/ulises/devkitPro/devkitARM/bin/../lib/gcc/arm-none-eabi/4.9.2/../../../../arm-none-eabi/lib/thumb/libg.a(lib_a-strtoll_r.o)
 .ARM.attributes
                0x000000000000189f       0x30 /home/ulises/devkitPro/devkitARM/bin/../lib/gcc/arm-none-eabi/4.9.2/../../../../arm-none-eabi/lib/thumb/libg.a(lib_a-strtoull_r.o)
 .ARM.attributes
                0x00000000000018cf       0x30 /home/ulises/devkitPro/devkitARM/bin/../lib/gcc/arm-none-eabi/4.9.2/../../../../arm-none-eabi/lib/thumb/libg.a(lib_a-strtoul.o)
 .ARM.attributes
                0x00000000000018ff       0x30 /home/ulises/devkitPro/devkitARM/bin/../lib/gcc/arm-none-eabi/4.9.2/../../../../arm-none-eabi/lib/thumb/libg.a(lib_a-svfiprintf.o)
 .ARM.attributes
                0x000000000000192f       0x30 /home/ulises/devkitPro/devkitARM/bin/../lib/gcc/arm-none-eabi/4.9.2/../../../../arm-none-eabi/lib/thumb/libg.a(lib_a-wbuf.o)
 .ARM.attributes
                0x000000000000195f       0x30 /home/ulises/devkitPro/devkitARM/bin/../lib/gcc/arm-none-eabi/4.9.2/../../../../arm-none-eabi/lib/thumb/libg.a(lib_a-wcsnrtombs.o)
 .ARM.attributes
                0x000000000000198f       0x30 /home/ulises/devkitPro/devkitARM/bin/../lib/gcc/arm-none-eabi/4.9.2/../../../../arm-none-eabi/lib/thumb/libg.a(lib_a-environ.o)
 .ARM.attributes
                0x00000000000019bf       0x30 /home/ulises/devkitPro/devkitARM/bin/../lib/gcc/arm-none-eabi/4.9.2/../../../../arm-none-eabi/lib/thumb/libg.a(lib_a-envlock.o)
 .ARM.attributes
                0x00000000000019ef       0x30 /home/ulises/devkitPro/devkitARM/bin/../lib/gcc/arm-none-eabi/4.9.2/../../../../arm-none-eabi/lib/thumb/libsysbase.a(iosupport.o)
 .ARM.attributes
                0x0000000000001a1f       0x30 /home/ulises/devkitPro/devkitARM/bin/../lib/gcc/arm-none-eabi/4.9.2/../../../../arm-none-eabi/lib/thumb/libsysbase.a(close.o)
 .ARM.attributes
                0x0000000000001a4f       0x30 /home/ulises/devkitPro/devkitARM/bin/../lib/gcc/arm-none-eabi/4.9.2/../../../../arm-none-eabi/lib/thumb/libsysbase.a(fstat.o)
 .ARM.attributes
                0x0000000000001a7f       0x30 /home/ulises/devkitPro/devkitARM/bin/../lib/gcc/arm-none-eabi/4.9.2/../../../../arm-none-eabi/lib/thumb/libsysbase.a(gettod.o)
 .ARM.attributes
                0x0000000000001aaf       0x30 /home/ulises/devkitPro/devkitARM/bin/../lib/gcc/arm-none-eabi/4.9.2/../../../../arm-none-eabi/lib/thumb/libsysbase.a(isatty.o)
 .ARM.attributes
                0x0000000000001adf       0x30 /home/ulises/devkitPro/devkitARM/bin/../lib/gcc/arm-none-eabi/4.9.2/../../../../arm-none-eabi/lib/thumb/libsysbase.a(lseek.o)
 .ARM.attributes
                0x0000000000001b0f       0x30 /home/ulises/devkitPro/devkitARM/bin/../lib/gcc/arm-none-eabi/4.9.2/../../../../arm-none-eabi/lib/thumb/libsysbase.a(open.o)
 .ARM.attributes
                0x0000000000001b3f       0x30 /home/ulises/devkitPro/devkitARM/bin/../lib/gcc/arm-none-eabi/4.9.2/../../../../arm-none-eabi/lib/thumb/libsysbase.a(read.o)
 .ARM.attributes
                0x0000000000001b6f       0x30 /home/ulises/devkitPro/devkitARM/bin/../lib/gcc/arm-none-eabi/4.9.2/../../../../arm-none-eabi/lib/thumb/libsysbase.a(sbrk.o)
 .ARM.attributes
                0x0000000000001b9f       0x30 /home/ulises/devkitPro/devkitARM/bin/../lib/gcc/arm-none-eabi/4.9.2/../../../../arm-none-eabi/lib/thumb/libsysbase.a(write.o)
 .ARM.attributes
                0x0000000000001bcf       0x30 /home/ulises/devkitPro/devkitARM/bin/../lib/gcc/arm-none-eabi/4.9.2/../../../../arm-none-eabi/lib/thumb/libsysbase.a(malloc_vars.o)
 .ARM.attributes
                0x0000000000001bff       0x30 /home/ulises/devkitPro/devkitARM/bin/../lib/gcc/arm-none-eabi/4.9.2/../../../../arm-none-eabi/lib/thumb/libsysbase.a(chdir.o)
 .ARM.attributes
                0x0000000000001c2f       0x30 /home/ulises/devkitPro/devkitARM/bin/../lib/gcc/arm-none-eabi/4.9.2/../../../../arm-none-eabi/lib/thumb/libsysbase.a(build_argv.o)
 .ARM.attributes
                0x0000000000001c5f       0x30 /home/ulises/devkitPro/devkitARM/bin/../lib/gcc/arm-none-eabi/4.9.2/../../../../arm-none-eabi/lib/thumb/libsysbase.a(flock.o)
 .ARM.attributes
                0x0000000000001c8f       0x30 /home/ulises/devkitPro/devkitARM/bin/../lib/gcc/arm-none-eabi/4.9.2/../../../../arm-none-eabi/lib/thumb/libsysbase.a(syscall_support.o)
 .ARM.attributes
                0x0000000000001cbf       0x30 /home/ulises/devkitPro/devkitARM/bin/../lib/gcc/arm-none-eabi/4.9.2/../../../../arm-none-eabi/lib/thumb/libsysbase.a(handle_manager.o)
 .ARM.attributes
                0x0000000000001cef       0x30 /home/ulises/devkitPro/devkitARM/bin/../lib/gcc/arm-none-eabi/4.9.2/../../../../arm-none-eabi/lib/thumb/libsysbase.a(getreent.o)
 .ARM.attributes
                0x0000000000001d1f       0x18 /home/ulises/devkitPro/devkitARM/bin/../lib/gcc/arm-none-eabi/4.9.2/thumb/libgcc.a(_arm_addsubdf3.o)
 .ARM.attributes
                0x0000000000001d37       0x18 /home/ulises/devkitPro/devkitARM/bin/../lib/gcc/arm-none-eabi/4.9.2/thumb/libgcc.a(_arm_muldivdf3.o)
 .ARM.attributes
                0x0000000000001d4f       0x18 /home/ulises/devkitPro/devkitARM/bin/../lib/gcc/arm-none-eabi/4.9.2/thumb/libgcc.a(_arm_cmpdf2.o)
 .ARM.attributes
                0x0000000000001d67       0x18 /home/ulises/devkitPro/devkitARM/bin/../lib/gcc/arm-none-eabi/4.9.2/thumb/libgcc.a(_arm_fixdfsi.o)
 .ARM.attributes
                0x0000000000001d7f       0x18 /home/ulises/devkitPro/devkitARM/bin/../lib/gcc/arm-none-eabi/4.9.2/thumb/libgcc.a(_aeabi_uldivmod.o)
 .ARM.attributes
                0x0000000000001d97       0x30 /home/ulises/devkitPro/devkitARM/bin/../lib/gcc/arm-none-eabi/4.9.2/thumb/libgcc.a(bpabi.o)
 .ARM.attributes
                0x0000000000001dc7       0x30 /home/ulises/devkitPro/devkitARM/bin/../lib/gcc/arm-none-eabi/4.9.2/thumb/libgcc.a(_divdi3.o)
 .ARM.attributes
                0x0000000000001df7       0x30 /home/ulises/devkitPro/devkitARM/bin/../lib/gcc/arm-none-eabi/4.9.2/thumb/libgcc.a(_udivdi3.o)
 .ARM.attributes
                0x0000000000001e27       0x18 /home/ulises/devkitPro/devkitARM/bin/../lib/gcc/arm-none-eabi/4.9.2/thumb/libgcc.a(_clzdi2.o)
 .ARM.attributes
                0x0000000000001e3f       0x18 /home/ulises/devkitPro/devkitARM/bin/../lib/gcc/arm-none-eabi/4.9.2/thumb/libgcc.a(_clzsi2.o)
 .ARM.attributes
                0x0000000000001e57       0x30 /home/ulises/devkitPro/devkitARM/bin/../lib/gcc/arm-none-eabi/4.9.2/../../../../arm-none-eabi/lib/thumb/libg.a(lib_a-errno.o)
 .ARM.attributes
                0x0000000000001e87       0x30 /home/ulises/devkitPro/devkitARM/bin/../lib/gcc/arm-none-eabi/4.9.2/thumb/crtend.o
 .ARM.attributes
                0x0000000000001eb7       0x16 /home/ulises/devkitPro/devkitARM/bin/../lib/gcc/arm-none-eabi/4.9.2/thumb/crtn.o

.debug
 *(.debug)

.line
 *(.line)

.debug_srcinfo
 *(.debug_srcinfo)

.debug_sfnames
 *(.debug_sfnames)

.debug_aranges  0x0000000000000000      0x548
 *(.debug_aranges)
 .debug_aranges
                0x0000000000000000       0x28 main.o
 .debug_aranges
                0x0000000000000028       0x20 /home/ulises/Escritorio/dbz/nflib/lib/libnflib.a(nf_2d.o)
 .debug_aranges
                0x0000000000000048       0x20 /home/ulises/Escritorio/dbz/nflib/lib/libnflib.a(nf_basic.o)
 .debug_aranges
                0x0000000000000068       0x20 /home/ulises/Escritorio/dbz/nflib/lib/libnflib.a(nf_sound.o)
 .debug_aranges
                0x0000000000000088       0x20 /home/ulises/Escritorio/dbz/nflib/lib/libnflib.a(nf_sprite256.o)
 .debug_aranges
                0x00000000000000a8       0x20 /home/ulises/Escritorio/dbz/nflib/lib/libnflib.a(nf_tiledbg.o)
 .debug_aranges
                0x00000000000000c8       0x20 /home/ulises/devkitPro/libnds/lib/libfilesystem.a(nitrofs.o)
 .debug_aranges
                0x00000000000000e8       0x20 /home/ulises/devkitPro/libnds/lib/libfat.a(libfat.o)
 .debug_aranges
                0x0000000000000108       0x20 /home/ulises/devkitPro/libnds/lib/libfat.a(partition.o)
 .debug_aranges
                0x0000000000000128       0x20 /home/ulises/devkitPro/libnds/lib/libfat.a(lock.o)
 .debug_aranges
                0x0000000000000148       0x20 /home/ulises/devkitPro/libnds/lib/libfat.a(fatdir.o)
 .debug_aranges
                0x0000000000000168       0x20 /home/ulises/devkitPro/libnds/lib/libfat.a(cache.o)
 .debug_aranges
                0x0000000000000188       0x20 /home/ulises/devkitPro/libnds/lib/libfat.a(fatfile.o)
 .debug_aranges
                0x00000000000001a8       0x20 /home/ulises/devkitPro/libnds/lib/libfat.a(disc.o)
 .debug_aranges
                0x00000000000001c8       0x20 /home/ulises/devkitPro/libnds/lib/libfat.a(file_allocation_table.o)
 .debug_aranges
                0x00000000000001e8       0x20 /home/ulises/devkitPro/libnds/lib/libfat.a(filetime.o)
 .debug_aranges
                0x0000000000000208       0x20 /home/ulises/devkitPro/libnds/lib/libfat.a(directory.o)
 .debug_aranges
                0x0000000000000228       0x20 /home/ulises/devkitPro/libnds/lib/libnds9.a(keys.o)
 .debug_aranges
                0x0000000000000248       0x20 /home/ulises/devkitPro/libnds/lib/libnds9.a(sprite.o)
 .debug_aranges
                0x0000000000000268       0x20 /home/ulises/devkitPro/libnds/lib/libnds9.a(sound.o)
 .debug_aranges
                0x0000000000000288       0x20 /home/ulises/devkitPro/libnds/lib/libnds9.a(trig.o)
 .debug_aranges
                0x00000000000002a8       0x20 /home/ulises/devkitPro/libnds/lib/libnds9.a(console.o)
 .debug_aranges
                0x00000000000002c8       0x20 /home/ulises/devkitPro/libnds/lib/libnds9.a(sprite_alloc.o)
 .debug_aranges
                0x00000000000002e8       0x20 /home/ulises/devkitPro/libnds/lib/libnds9.a(touch.o)
 .debug_aranges
                0x0000000000000308       0x20 /home/ulises/devkitPro/libnds/lib/libnds9.a(video.o)
 .debug_aranges
                0x0000000000000328       0x20 /home/ulises/devkitPro/libnds/lib/libnds9.a(background.o)
 .debug_aranges
                0x0000000000000348       0x20 /home/ulises/devkitPro/libnds/lib/libnds9.a(dldi.o)
 .debug_aranges
                0x0000000000000368       0x20 /home/ulises/devkitPro/libnds/lib/libnds9.a(dsi_sd.o)
 .debug_aranges
                0x0000000000000388       0x20 /home/ulises/devkitPro/libnds/lib/libnds9.a(initSystem.o)
 .debug_aranges
                0x00000000000003a8       0x20 /home/ulises/devkitPro/libnds/lib/libnds9.a(fifosystem.o)
 .debug_aranges
                0x00000000000003c8       0x20 /home/ulises/devkitPro/libnds/lib/libnds9.a(card.o)
 .debug_aranges
                0x00000000000003e8       0x20 /home/ulises/devkitPro/libnds/lib/libnds9.a(libnds_exit.arm.o)
 .debug_aranges
                0x0000000000000408       0x20 /home/ulises/devkitPro/libnds/lib/libnds9.a(interrupts.o)
 .debug_aranges
                0x0000000000000428       0x20 /home/ulises/devkitPro/libnds/lib/libnds9.a(dcache.o)
 .debug_aranges
                0x0000000000000448       0x20 /home/ulises/devkitPro/libnds/lib/libnds9.a(dldi_stub.o)
 .debug_aranges
                0x0000000000000468       0x20 /home/ulises/devkitPro/libnds/lib/libnds9.a(mpu_setup.o)
 .debug_aranges
                0x0000000000000488       0x20 /home/ulises/devkitPro/libnds/lib/libnds9.a(swiSoftReset.o)
 .debug_aranges
                0x00000000000004a8       0x20 /home/ulises/devkitPro/libnds/lib/libnds9.a(debugprint.o)
 .debug_aranges
                0x00000000000004c8       0x20 /home/ulises/devkitPro/libnds/lib/libnds9.a(biosCalls.o)
 .debug_aranges
                0x00000000000004e8       0x20 /home/ulises/devkitPro/libnds/lib/libnds9.a(interruptDispatcher.o)
 .debug_aranges
                0x0000000000000508       0x20 /home/ulises/devkitPro/libnds/lib/libnds9.a(system.o)
 .debug_aranges
                0x0000000000000528       0x20 /home/ulises/devkitPro/libnds/lib/libnds9.a(timeSupport.o)

.debug_pubnames
 *(.debug_pubnames)

.debug_info     0x0000000000000000    0x28472
 *(.debug_info)
 .debug_info    0x0000000000000000     0x3c71 main.o
 .debug_info    0x0000000000003c71     0x1530 /home/ulises/Escritorio/dbz/nflib/lib/libnflib.a(nf_2d.o)
 .debug_info    0x00000000000051a1      0x8b7 /home/ulises/Escritorio/dbz/nflib/lib/libnflib.a(nf_basic.o)
 .debug_info    0x0000000000005a58     0x1159 /home/ulises/Escritorio/dbz/nflib/lib/libnflib.a(nf_sound.o)
 .debug_info    0x0000000000006bb1     0x2412 /home/ulises/Escritorio/dbz/nflib/lib/libnflib.a(nf_sprite256.o)
 .debug_info    0x0000000000008fc3     0x2657 /home/ulises/Escritorio/dbz/nflib/lib/libnflib.a(nf_tiledbg.o)
 .debug_info    0x000000000000b61a     0x2857 /home/ulises/devkitPro/libnds/lib/libfilesystem.a(nitrofs.o)
 .debug_info    0x000000000000de71     0x1d05 /home/ulises/devkitPro/libnds/lib/libfat.a(libfat.o)
 .debug_info    0x000000000000fb76     0x297f /home/ulises/devkitPro/libnds/lib/libfat.a(partition.o)
 .debug_info    0x00000000000124f5      0x124 /home/ulises/devkitPro/libnds/lib/libfat.a(lock.o)
 .debug_info    0x0000000000012619     0x2535 /home/ulises/devkitPro/libnds/lib/libfat.a(fatdir.o)
 .debug_info    0x0000000000014b4e     0x104a /home/ulises/devkitPro/libnds/lib/libfat.a(cache.o)
 .debug_info    0x0000000000015b98     0x2fb8 /home/ulises/devkitPro/libnds/lib/libfat.a(fatfile.o)
 .debug_info    0x0000000000018b50      0x24b /home/ulises/devkitPro/libnds/lib/libfat.a(disc.o)
 .debug_info    0x0000000000018d9b      0xd01 /home/ulises/devkitPro/libnds/lib/libfat.a(file_allocation_table.o)
 .debug_info    0x0000000000019a9c      0x28d /home/ulises/devkitPro/libnds/lib/libfat.a(filetime.o)
 .debug_info    0x0000000000019d29     0x2a94 /home/ulises/devkitPro/libnds/lib/libfat.a(directory.o)
 .debug_info    0x000000000001c7bd      0x414 /home/ulises/devkitPro/libnds/lib/libnds9.a(keys.o)
 .debug_info    0x000000000001cbd1      0xc46 /home/ulises/devkitPro/libnds/lib/libnds9.a(sprite.o)
 .debug_info    0x000000000001d817      0xb9a /home/ulises/devkitPro/libnds/lib/libnds9.a(sound.o)
 .debug_info    0x000000000001e3b1      0x552 /home/ulises/devkitPro/libnds/lib/libnds9.a(trig.o)
 .debug_info    0x000000000001e903     0x225b /home/ulises/devkitPro/libnds/lib/libnds9.a(console.o)
 .debug_info    0x0000000000020b5e     0x105f /home/ulises/devkitPro/libnds/lib/libnds9.a(sprite_alloc.o)
 .debug_info    0x0000000000021bbd      0x2fe /home/ulises/devkitPro/libnds/lib/libnds9.a(touch.o)
 .debug_info    0x0000000000021ebb      0x730 /home/ulises/devkitPro/libnds/lib/libnds9.a(video.o)
 .debug_info    0x00000000000225eb      0x941 /home/ulises/devkitPro/libnds/lib/libnds9.a(background.o)
 .debug_info    0x0000000000022f2c      0x7d4 /home/ulises/devkitPro/libnds/lib/libnds9.a(dldi.o)
 .debug_info    0x0000000000023700      0x983 /home/ulises/devkitPro/libnds/lib/libnds9.a(dsi_sd.o)
 .debug_info    0x0000000000024083     0x10eb /home/ulises/devkitPro/libnds/lib/libnds9.a(initSystem.o)
 .debug_info    0x000000000002516e     0x1597 /home/ulises/devkitPro/libnds/lib/libnds9.a(fifosystem.o)
 .debug_info    0x0000000000026705      0x4c0 /home/ulises/devkitPro/libnds/lib/libnds9.a(card.o)
 .debug_info    0x0000000000026bc5      0x327 /home/ulises/devkitPro/libnds/lib/libnds9.a(libnds_exit.arm.o)
 .debug_info    0x0000000000026eec      0x5ac /home/ulises/devkitPro/libnds/lib/libnds9.a(interrupts.o)
 .debug_info    0x0000000000027498       0xc6 /home/ulises/devkitPro/libnds/lib/libnds9.a(dcache.o)
 .debug_info    0x000000000002755e       0xce /home/ulises/devkitPro/libnds/lib/libnds9.a(dldi_stub.o)
 .debug_info    0x000000000002762c       0xd0 /home/ulises/devkitPro/libnds/lib/libnds9.a(mpu_setup.o)
 .debug_info    0x00000000000276fc       0xce /home/ulises/devkitPro/libnds/lib/libnds9.a(swiSoftReset.o)
 .debug_info    0x00000000000277ca       0xcc /home/ulises/devkitPro/libnds/lib/libnds9.a(debugprint.o)
 .debug_info    0x0000000000027896       0xcb /home/ulises/devkitPro/libnds/lib/libnds9.a(biosCalls.o)
 .debug_info    0x0000000000027961       0xd5 /home/ulises/devkitPro/libnds/lib/libnds9.a(interruptDispatcher.o)
 .debug_info    0x0000000000027a36      0x8f6 /home/ulises/devkitPro/libnds/lib/libnds9.a(system.o)
 .debug_info    0x000000000002832c      0x146 /home/ulises/devkitPro/libnds/lib/libnds9.a(timeSupport.o)

.debug_abbrev   0x0000000000000000     0x607e
 *(.debug_abbrev)
 .debug_abbrev  0x0000000000000000      0x32f main.o
 .debug_abbrev  0x000000000000032f      0x311 /home/ulises/Escritorio/dbz/nflib/lib/libnflib.a(nf_2d.o)
 .debug_abbrev  0x0000000000000640      0x1f9 /home/ulises/Escritorio/dbz/nflib/lib/libnflib.a(nf_basic.o)
 .debug_abbrev  0x0000000000000839      0x282 /home/ulises/Escritorio/dbz/nflib/lib/libnflib.a(nf_sound.o)
 .debug_abbrev  0x0000000000000abb      0x3a4 /home/ulises/Escritorio/dbz/nflib/lib/libnflib.a(nf_sprite256.o)
 .debug_abbrev  0x0000000000000e5f      0x394 /home/ulises/Escritorio/dbz/nflib/lib/libnflib.a(nf_tiledbg.o)
 .debug_abbrev  0x00000000000011f3      0x4c4 /home/ulises/devkitPro/libnds/lib/libfilesystem.a(nitrofs.o)
 .debug_abbrev  0x00000000000016b7      0x3b9 /home/ulises/devkitPro/libnds/lib/libfat.a(libfat.o)
 .debug_abbrev  0x0000000000001a70      0x478 /home/ulises/devkitPro/libnds/lib/libfat.a(partition.o)
 .debug_abbrev  0x0000000000001ee8       0x7f /home/ulises/devkitPro/libnds/lib/libfat.a(lock.o)
 .debug_abbrev  0x0000000000001f67      0x39a /home/ulises/devkitPro/libnds/lib/libfat.a(fatdir.o)
 .debug_abbrev  0x0000000000002301      0x38a /home/ulises/devkitPro/libnds/lib/libfat.a(cache.o)
 .debug_abbrev  0x000000000000268b      0x4cf /home/ulises/devkitPro/libnds/lib/libfat.a(fatfile.o)
 .debug_abbrev  0x0000000000002b5a       0xe3 /home/ulises/devkitPro/libnds/lib/libfat.a(disc.o)
 .debug_abbrev  0x0000000000002c3d      0x2f8 /home/ulises/devkitPro/libnds/lib/libfat.a(file_allocation_table.o)
 .debug_abbrev  0x0000000000002f35       0xf0 /home/ulises/devkitPro/libnds/lib/libfat.a(filetime.o)
 .debug_abbrev  0x0000000000003025      0x4a7 /home/ulises/devkitPro/libnds/lib/libfat.a(directory.o)
 .debug_abbrev  0x00000000000034cc      0x16b /home/ulises/devkitPro/libnds/lib/libnds9.a(keys.o)
 .debug_abbrev  0x0000000000003637      0x34d /home/ulises/devkitPro/libnds/lib/libnds9.a(sprite.o)
 .debug_abbrev  0x0000000000003984      0x1d8 /home/ulises/devkitPro/libnds/lib/libnds9.a(sound.o)
 .debug_abbrev  0x0000000000003b5c      0x1ff /home/ulises/devkitPro/libnds/lib/libnds9.a(trig.o)
 .debug_abbrev  0x0000000000003d5b      0x52e /home/ulises/devkitPro/libnds/lib/libnds9.a(console.o)
 .debug_abbrev  0x0000000000004289      0x32e /home/ulises/devkitPro/libnds/lib/libnds9.a(sprite_alloc.o)
 .debug_abbrev  0x00000000000045b7      0x124 /home/ulises/devkitPro/libnds/lib/libnds9.a(touch.o)
 .debug_abbrev  0x00000000000046db      0x1d7 /home/ulises/devkitPro/libnds/lib/libnds9.a(video.o)
 .debug_abbrev  0x00000000000048b2      0x2a6 /home/ulises/devkitPro/libnds/lib/libnds9.a(background.o)
 .debug_abbrev  0x0000000000004b58      0x286 /home/ulises/devkitPro/libnds/lib/libnds9.a(dldi.o)
 .debug_abbrev  0x0000000000004dde      0x21d /home/ulises/devkitPro/libnds/lib/libnds9.a(dsi_sd.o)
 .debug_abbrev  0x0000000000004ffb      0x303 /home/ulises/devkitPro/libnds/lib/libnds9.a(initSystem.o)
 .debug_abbrev  0x00000000000052fe      0x464 /home/ulises/devkitPro/libnds/lib/libnds9.a(fifosystem.o)
 .debug_abbrev  0x0000000000005762      0x1d5 /home/ulises/devkitPro/libnds/lib/libnds9.a(card.o)
 .debug_abbrev  0x0000000000005937      0x175 /home/ulises/devkitPro/libnds/lib/libnds9.a(libnds_exit.arm.o)
 .debug_abbrev  0x0000000000005aac      0x239 /home/ulises/devkitPro/libnds/lib/libnds9.a(interrupts.o)
 .debug_abbrev  0x0000000000005ce5       0x14 /home/ulises/devkitPro/libnds/lib/libnds9.a(dcache.o)
 .debug_abbrev  0x0000000000005cf9       0x14 /home/ulises/devkitPro/libnds/lib/libnds9.a(dldi_stub.o)
 .debug_abbrev  0x0000000000005d0d       0x14 /home/ulises/devkitPro/libnds/lib/libnds9.a(mpu_setup.o)
 .debug_abbrev  0x0000000000005d21       0x14 /home/ulises/devkitPro/libnds/lib/libnds9.a(swiSoftReset.o)
 .debug_abbrev  0x0000000000005d35       0x14 /home/ulises/devkitPro/libnds/lib/libnds9.a(debugprint.o)
 .debug_abbrev  0x0000000000005d49       0x14 /home/ulises/devkitPro/libnds/lib/libnds9.a(biosCalls.o)
 .debug_abbrev  0x0000000000005d5d       0x14 /home/ulises/devkitPro/libnds/lib/libnds9.a(interruptDispatcher.o)
 .debug_abbrev  0x0000000000005d71      0x250 /home/ulises/devkitPro/libnds/lib/libnds9.a(system.o)
 .debug_abbrev  0x0000000000005fc1       0xbd /home/ulises/devkitPro/libnds/lib/libnds9.a(timeSupport.o)

.debug_line     0x0000000000000000     0x9645
 *(.debug_line)
 .debug_line    0x0000000000000000      0x884 main.o
 .debug_line    0x0000000000000884      0x34b /home/ulises/Escritorio/dbz/nflib/lib/libnflib.a(nf_2d.o)
 .debug_line    0x0000000000000bcf      0x2c5 /home/ulises/Escritorio/dbz/nflib/lib/libnflib.a(nf_basic.o)
 .debug_line    0x0000000000000e94      0x328 /home/ulises/Escritorio/dbz/nflib/lib/libnflib.a(nf_sound.o)
 .debug_line    0x00000000000011bc      0x92f /home/ulises/Escritorio/dbz/nflib/lib/libnflib.a(nf_sprite256.o)
 .debug_line    0x0000000000001aeb      0xacd /home/ulises/Escritorio/dbz/nflib/lib/libnflib.a(nf_tiledbg.o)
 .debug_line    0x00000000000025b8      0x5ac /home/ulises/devkitPro/libnds/lib/libfilesystem.a(nitrofs.o)
 .debug_line    0x0000000000002b64      0x3b5 /home/ulises/devkitPro/libnds/lib/libfat.a(libfat.o)
 .debug_line    0x0000000000002f19      0x637 /home/ulises/devkitPro/libnds/lib/libfat.a(partition.o)
 .debug_line    0x0000000000003550       0x86 /home/ulises/devkitPro/libnds/lib/libfat.a(lock.o)
 .debug_line    0x00000000000035d6      0x5d7 /home/ulises/devkitPro/libnds/lib/libfat.a(fatdir.o)
 .debug_line    0x0000000000003bad      0x400 /home/ulises/devkitPro/libnds/lib/libfat.a(cache.o)
 .debug_line    0x0000000000003fad      0x999 /home/ulises/devkitPro/libnds/lib/libfat.a(fatfile.o)
 .debug_line    0x0000000000004946      0x13a /home/ulises/devkitPro/libnds/lib/libfat.a(disc.o)
 .debug_line    0x0000000000004a80      0x384 /home/ulises/devkitPro/libnds/lib/libfat.a(file_allocation_table.o)
 .debug_line    0x0000000000004e04      0x17f /home/ulises/devkitPro/libnds/lib/libfat.a(filetime.o)
 .debug_line    0x0000000000004f83      0x9ce /home/ulises/devkitPro/libnds/lib/libfat.a(directory.o)
 .debug_line    0x0000000000005951      0x25b /home/ulises/devkitPro/libnds/lib/libnds9.a(keys.o)
 .debug_line    0x0000000000005bac      0x364 /home/ulises/devkitPro/libnds/lib/libnds9.a(sprite.o)
 .debug_line    0x0000000000005f10      0x287 /home/ulises/devkitPro/libnds/lib/libnds9.a(sound.o)
 .debug_line    0x0000000000006197      0x2df /home/ulises/devkitPro/libnds/lib/libnds9.a(trig.o)
 .debug_line    0x0000000000006476      0x718 /home/ulises/devkitPro/libnds/lib/libnds9.a(console.o)
 .debug_line    0x0000000000006b8e      0x341 /home/ulises/devkitPro/libnds/lib/libnds9.a(sprite_alloc.o)
 .debug_line    0x0000000000006ecf      0x239 /home/ulises/devkitPro/libnds/lib/libnds9.a(touch.o)
 .debug_line    0x0000000000007108      0x278 /home/ulises/devkitPro/libnds/lib/libnds9.a(video.o)
 .debug_line    0x0000000000007380      0x320 /home/ulises/devkitPro/libnds/lib/libnds9.a(background.o)
 .debug_line    0x00000000000076a0      0x3ac /home/ulises/devkitPro/libnds/lib/libnds9.a(dldi.o)
 .debug_line    0x0000000000007a4c      0x253 /home/ulises/devkitPro/libnds/lib/libnds9.a(dsi_sd.o)
 .debug_line    0x0000000000007c9f      0x3a5 /home/ulises/devkitPro/libnds/lib/libnds9.a(initSystem.o)
 .debug_line    0x0000000000008044      0x6b1 /home/ulises/devkitPro/libnds/lib/libnds9.a(fifosystem.o)
 .debug_line    0x00000000000086f5      0x226 /home/ulises/devkitPro/libnds/lib/libnds9.a(card.o)
 .debug_line    0x000000000000891b      0x1ea /home/ulises/devkitPro/libnds/lib/libnds9.a(libnds_exit.arm.o)
 .debug_line    0x0000000000008b05      0x29f /home/ulises/devkitPro/libnds/lib/libnds9.a(interrupts.o)
 .debug_line    0x0000000000008da4       0xae /home/ulises/devkitPro/libnds/lib/libnds9.a(dcache.o)
 .debug_line    0x0000000000008e52       0x91 /home/ulises/devkitPro/libnds/lib/libnds9.a(dldi_stub.o)
 .debug_line    0x0000000000008ee3      0x107 /home/ulises/devkitPro/libnds/lib/libnds9.a(mpu_setup.o)
 .debug_line    0x0000000000008fea       0x9d /home/ulises/devkitPro/libnds/lib/libnds9.a(swiSoftReset.o)
 .debug_line    0x0000000000009087       0xa5 /home/ulises/devkitPro/libnds/lib/libnds9.a(debugprint.o)
 .debug_line    0x000000000000912c       0xc9 /home/ulises/devkitPro/libnds/lib/libnds9.a(biosCalls.o)
 .debug_line    0x00000000000091f5       0xcd /home/ulises/devkitPro/libnds/lib/libnds9.a(interruptDispatcher.o)
 .debug_line    0x00000000000092c2      0x2a5 /home/ulises/devkitPro/libnds/lib/libnds9.a(system.o)
 .debug_line    0x0000000000009567       0xde /home/ulises/devkitPro/libnds/lib/libnds9.a(timeSupport.o)

.debug_frame    0x0000000000000000     0x2698
 *(.debug_frame)
 .debug_frame   0x0000000000000000       0x88 main.o
 .debug_frame   0x0000000000000088      0x198 /home/ulises/Escritorio/dbz/nflib/lib/libnflib.a(nf_2d.o)
 .debug_frame   0x0000000000000220       0x78 /home/ulises/Escritorio/dbz/nflib/lib/libnflib.a(nf_basic.o)
 .debug_frame   0x0000000000000298       0xc4 /home/ulises/Escritorio/dbz/nflib/lib/libnflib.a(nf_sound.o)
 .debug_frame   0x000000000000035c      0x2cc /home/ulises/Escritorio/dbz/nflib/lib/libnflib.a(nf_sprite256.o)
 .debug_frame   0x0000000000000628      0x3b0 /home/ulises/Escritorio/dbz/nflib/lib/libnflib.a(nf_tiledbg.o)
 .debug_frame   0x00000000000009d8      0x1a4 /home/ulises/devkitPro/libnds/lib/libfilesystem.a(nitrofs.o)
 .debug_frame   0x0000000000000b7c       0xd8 /home/ulises/devkitPro/libnds/lib/libfat.a(libfat.o)
 .debug_frame   0x0000000000000c54      0x194 /home/ulises/devkitPro/libnds/lib/libfat.a(partition.o)
 .debug_frame   0x0000000000000de8       0x50 /home/ulises/devkitPro/libnds/lib/libfat.a(lock.o)
 .debug_frame   0x0000000000000e38      0x17c /home/ulises/devkitPro/libnds/lib/libfat.a(fatdir.o)
 .debug_frame   0x0000000000000fb4      0x1e8 /home/ulises/devkitPro/libnds/lib/libfat.a(cache.o)
 .debug_frame   0x000000000000119c      0x230 /home/ulises/devkitPro/libnds/lib/libfat.a(fatfile.o)
 .debug_frame   0x00000000000013cc       0x20 /home/ulises/devkitPro/libnds/lib/libfat.a(disc.o)
 .debug_frame   0x00000000000013ec      0x124 /home/ulises/devkitPro/libnds/lib/libfat.a(file_allocation_table.o)
 .debug_frame   0x0000000000001510       0x58 /home/ulises/devkitPro/libnds/lib/libfat.a(filetime.o)
 .debug_frame   0x0000000000001568      0x280 /home/ulises/devkitPro/libnds/lib/libfat.a(directory.o)
 .debug_frame   0x00000000000017e8       0x8c /home/ulises/devkitPro/libnds/lib/libnds9.a(keys.o)
 .debug_frame   0x0000000000001874       0xe8 /home/ulises/devkitPro/libnds/lib/libnds9.a(sprite.o)
 .debug_frame   0x000000000000195c      0x194 /home/ulises/devkitPro/libnds/lib/libnds9.a(sound.o)
 .debug_frame   0x0000000000001af0       0xd0 /home/ulises/devkitPro/libnds/lib/libnds9.a(trig.o)
 .debug_frame   0x0000000000001bc0      0x1a0 /home/ulises/devkitPro/libnds/lib/libnds9.a(console.o)
 .debug_frame   0x0000000000001d60       0xb4 /home/ulises/devkitPro/libnds/lib/libnds9.a(sprite_alloc.o)
 .debug_frame   0x0000000000001e14       0x3c /home/ulises/devkitPro/libnds/lib/libnds9.a(touch.o)
 .debug_frame   0x0000000000001e50       0xbc /home/ulises/devkitPro/libnds/lib/libnds9.a(video.o)
 .debug_frame   0x0000000000001f0c       0xbc /home/ulises/devkitPro/libnds/lib/libnds9.a(background.o)
 .debug_frame   0x0000000000001fc8       0x88 /home/ulises/devkitPro/libnds/lib/libnds9.a(dldi.o)
 .debug_frame   0x0000000000002050       0xa0 /home/ulises/devkitPro/libnds/lib/libnds9.a(dsi_sd.o)
 .debug_frame   0x00000000000020f0       0x28 /home/ulises/devkitPro/libnds/lib/libnds9.a(initSystem.o)
 .debug_frame   0x0000000000002118      0x2bc /home/ulises/devkitPro/libnds/lib/libnds9.a(fifosystem.o)
 .debug_frame   0x00000000000023d4       0xf4 /home/ulises/devkitPro/libnds/lib/libnds9.a(card.o)
 .debug_frame   0x00000000000024c8       0x3c /home/ulises/devkitPro/libnds/lib/libnds9.a(libnds_exit.arm.o)
 .debug_frame   0x0000000000002504       0xac /home/ulises/devkitPro/libnds/lib/libnds9.a(interrupts.o)
 .debug_frame   0x00000000000025b0       0xc8 /home/ulises/devkitPro/libnds/lib/libnds9.a(system.o)
 .debug_frame   0x0000000000002678       0x20 /home/ulises/devkitPro/libnds/lib/libnds9.a(timeSupport.o)

.debug_str      0x0000000000000000     0x6c4a
 *(.debug_str)
 .debug_str     0x0000000000000000      0xdaa main.o
                                        0xe9b (size before relaxing)
 .debug_str     0x0000000000000daa      0x2ef /home/ulises/Escritorio/dbz/nflib/lib/libnflib.a(nf_2d.o)
                                        0xad1 (size before relaxing)
 .debug_str     0x0000000000001099       0xaa /home/ulises/Escritorio/dbz/nflib/lib/libnflib.a(nf_basic.o)
                                        0x532 (size before relaxing)
 .debug_str     0x0000000000001143      0x421 /home/ulises/Escritorio/dbz/nflib/lib/libnflib.a(nf_sound.o)
                                        0x921 (size before relaxing)
 .debug_str     0x0000000000001564      0x85b /home/ulises/Escritorio/dbz/nflib/lib/libnflib.a(nf_sprite256.o)
                                       0x14f3 (size before relaxing)
 .debug_str     0x0000000000001dbf      0x8b2 /home/ulises/Escritorio/dbz/nflib/lib/libnflib.a(nf_tiledbg.o)
                                       0x124b (size before relaxing)
 .debug_str     0x0000000000002671      0x744 /home/ulises/devkitPro/libnds/lib/libfilesystem.a(nitrofs.o)
                                        0xd88 (size before relaxing)
 .debug_str     0x0000000000002db5      0x55f /home/ulises/devkitPro/libnds/lib/libfat.a(libfat.o)
                                        0xe28 (size before relaxing)
 .debug_str     0x0000000000003314      0x5c0 /home/ulises/devkitPro/libnds/lib/libfat.a(partition.o)
                                       0x11e7 (size before relaxing)
 .debug_str     0x00000000000038d4       0x56 /home/ulises/devkitPro/libnds/lib/libfat.a(lock.o)
                                        0x1a7 (size before relaxing)
 .debug_str     0x000000000000392a      0x4f2 /home/ulises/devkitPro/libnds/lib/libfat.a(fatdir.o)
                                        0xf8b (size before relaxing)
 .debug_str     0x0000000000003e1c      0x17b /home/ulises/devkitPro/libnds/lib/libfat.a(cache.o)
                                        0x5b1 (size before relaxing)
 .debug_str     0x0000000000003f97      0x296 /home/ulises/devkitPro/libnds/lib/libfat.a(fatfile.o)
                                       0x1039 (size before relaxing)
 .debug_str     0x000000000000422d       0x68 /home/ulises/devkitPro/libnds/lib/libfat.a(disc.o)
                                        0x2bc (size before relaxing)
 .debug_str     0x0000000000004295       0xc9 /home/ulises/devkitPro/libnds/lib/libfat.a(file_allocation_table.o)
                                        0x687 (size before relaxing)
 .debug_str     0x000000000000435e       0x93 /home/ulises/devkitPro/libnds/lib/libfat.a(filetime.o)
                                        0x246 (size before relaxing)
 .debug_str     0x00000000000043f1      0x521 /home/ulises/devkitPro/libnds/lib/libfat.a(directory.o)
                                        0xf09 (size before relaxing)
 .debug_str     0x0000000000004912      0x1cb /home/ulises/devkitPro/libnds/lib/libnds9.a(keys.o)
                                        0x392 (size before relaxing)
 .debug_str     0x0000000000004add      0x1b9 /home/ulises/devkitPro/libnds/lib/libnds9.a(sprite.o)
                                        0x857 (size before relaxing)
 .debug_str     0x0000000000004c96      0x553 /home/ulises/devkitPro/libnds/lib/libnds9.a(sound.o)
                                        0x722 (size before relaxing)
 .debug_str     0x00000000000051e9      0x104 /home/ulises/devkitPro/libnds/lib/libnds9.a(trig.o)
                                        0x27e (size before relaxing)
 .debug_str     0x00000000000052ed      0x49d /home/ulises/devkitPro/libnds/lib/libnds9.a(console.o)
                                       0x1164 (size before relaxing)
 .debug_str     0x000000000000578a      0x11c /home/ulises/devkitPro/libnds/lib/libnds9.a(sprite_alloc.o)
                                        0x801 (size before relaxing)
 .debug_str     0x00000000000058a6       0x6c /home/ulises/devkitPro/libnds/lib/libnds9.a(touch.o)
                                        0x2a4 (size before relaxing)
 .debug_str     0x0000000000005912      0x2ec /home/ulises/devkitPro/libnds/lib/libnds9.a(video.o)
                                        0xbe1 (size before relaxing)
 .debug_str     0x0000000000005bfe      0x103 /home/ulises/devkitPro/libnds/lib/libnds9.a(background.o)
                                        0x71a (size before relaxing)
 .debug_str     0x0000000000005d01      0x1d5 /home/ulises/devkitPro/libnds/lib/libnds9.a(dldi.o)
                                        0x49d (size before relaxing)
 .debug_str     0x0000000000005ed6       0xfc /home/ulises/devkitPro/libnds/lib/libnds9.a(dsi_sd.o)
                                        0x61a (size before relaxing)
 .debug_str     0x0000000000005fd2      0x28d /home/ulises/devkitPro/libnds/lib/libnds9.a(initSystem.o)
                                        0xbd3 (size before relaxing)
 .debug_str     0x000000000000625f      0x4a5 /home/ulises/devkitPro/libnds/lib/libnds9.a(fifosystem.o)
                                        0x832 (size before relaxing)
 .debug_str     0x0000000000006704       0xe3 /home/ulises/devkitPro/libnds/lib/libnds9.a(card.o)
                                        0x27d (size before relaxing)
 .debug_str     0x00000000000067e7      0x1bc /home/ulises/devkitPro/libnds/lib/libnds9.a(libnds_exit.arm.o)
                                        0x35f (size before relaxing)
 .debug_str     0x00000000000069a3      0x114 /home/ulises/devkitPro/libnds/lib/libnds9.a(interrupts.o)
                                        0x41b (size before relaxing)
 .debug_str     0x0000000000006ab7      0x121 /home/ulises/devkitPro/libnds/lib/libnds9.a(system.o)
                                        0x68c (size before relaxing)
 .debug_str     0x0000000000006bd8       0x72 /home/ulises/devkitPro/libnds/lib/libnds9.a(timeSupport.o)
                                        0x1d0 (size before relaxing)

.debug_loc      0x0000000000000000    0x168a8
 *(.debug_loc)
 .debug_loc     0x0000000000000000     0x14ef main.o
 .debug_loc     0x00000000000014ef      0xaa3 /home/ulises/Escritorio/dbz/nflib/lib/libnflib.a(nf_2d.o)
 .debug_loc     0x0000000000001f92      0x2a9 /home/ulises/Escritorio/dbz/nflib/lib/libnflib.a(nf_basic.o)
 .debug_loc     0x000000000000223b      0x21e /home/ulises/Escritorio/dbz/nflib/lib/libnflib.a(nf_sound.o)
 .debug_loc     0x0000000000002459      0xe9b /home/ulises/Escritorio/dbz/nflib/lib/libnflib.a(nf_sprite256.o)
 .debug_loc     0x00000000000032f4     0x224a /home/ulises/Escritorio/dbz/nflib/lib/libnflib.a(nf_tiledbg.o)
 .debug_loc     0x000000000000553e     0x1b3b /home/ulises/devkitPro/libnds/lib/libfilesystem.a(nitrofs.o)
 .debug_loc     0x0000000000007079      0x4cb /home/ulises/devkitPro/libnds/lib/libfat.a(libfat.o)
 .debug_loc     0x0000000000007544      0xfd1 /home/ulises/devkitPro/libnds/lib/libfat.a(partition.o)
 .debug_loc     0x0000000000008515     0x1252 /home/ulises/devkitPro/libnds/lib/libfat.a(fatdir.o)
 .debug_loc     0x0000000000009767     0x11d6 /home/ulises/devkitPro/libnds/lib/libfat.a(cache.o)
 .debug_loc     0x000000000000a93d     0x2eaf /home/ulises/devkitPro/libnds/lib/libfat.a(fatfile.o)
 .debug_loc     0x000000000000d7ec      0xc69 /home/ulises/devkitPro/libnds/lib/libfat.a(file_allocation_table.o)
 .debug_loc     0x000000000000e455       0x42 /home/ulises/devkitPro/libnds/lib/libfat.a(filetime.o)
 .debug_loc     0x000000000000e497     0x320c /home/ulises/devkitPro/libnds/lib/libfat.a(directory.o)
 .debug_loc     0x00000000000116a3      0x840 /home/ulises/devkitPro/libnds/lib/libnds9.a(sprite.o)
 .debug_loc     0x0000000000011ee3      0x522 /home/ulises/devkitPro/libnds/lib/libnds9.a(sound.o)
 .debug_loc     0x0000000000012405      0x88e /home/ulises/devkitPro/libnds/lib/libnds9.a(trig.o)
 .debug_loc     0x0000000000012c93      0xfe7 /home/ulises/devkitPro/libnds/lib/libnds9.a(console.o)
 .debug_loc     0x0000000000013c7a      0x811 /home/ulises/devkitPro/libnds/lib/libnds9.a(sprite_alloc.o)
 .debug_loc     0x000000000001448b       0xe7 /home/ulises/devkitPro/libnds/lib/libnds9.a(touch.o)
 .debug_loc     0x0000000000014572      0x22b /home/ulises/devkitPro/libnds/lib/libnds9.a(video.o)
 .debug_loc     0x000000000001479d      0x3da /home/ulises/devkitPro/libnds/lib/libnds9.a(background.o)
 .debug_loc     0x0000000000014b77      0x306 /home/ulises/devkitPro/libnds/lib/libnds9.a(dldi.o)
 .debug_loc     0x0000000000014e7d      0x1f2 /home/ulises/devkitPro/libnds/lib/libnds9.a(dsi_sd.o)
 .debug_loc     0x000000000001506f       0x1f /home/ulises/devkitPro/libnds/lib/libnds9.a(initSystem.o)
 .debug_loc     0x000000000001508e     0x1128 /home/ulises/devkitPro/libnds/lib/libnds9.a(fifosystem.o)
 .debug_loc     0x00000000000161b6      0x321 /home/ulises/devkitPro/libnds/lib/libnds9.a(card.o)
 .debug_loc     0x00000000000164d7       0x58 /home/ulises/devkitPro/libnds/lib/libnds9.a(libnds_exit.arm.o)
 .debug_loc     0x000000000001652f      0x16a /home/ulises/devkitPro/libnds/lib/libnds9.a(interrupts.o)
 .debug_loc     0x0000000000016699      0x1ee /home/ulises/devkitPro/libnds/lib/libnds9.a(system.o)
 .debug_loc     0x0000000000016887       0x21 /home/ulises/devkitPro/libnds/lib/libnds9.a(timeSupport.o)

.debug_macinfo
 *(.debug_macinfo)

.debug_weaknames
 *(.debug_weaknames)

.debug_funcnames
 *(.debug_funcnames)

.debug_typenames
 *(.debug_typenames)

.debug_varnames
 *(.debug_varnames)

.stack          0x0000000000080000        0x0
                0x0000000000080000                _stack = .
 *(.stack)
LOAD /home/ulises/devkitPro/devkitARM/bin/../lib/gcc/arm-none-eabi/4.9.2/../../../../arm-none-eabi/lib/thumb/ds_arm9_crt0.o
LOAD /home/ulises/devkitPro/devkitARM/bin/../lib/gcc/arm-none-eabi/4.9.2/thumb/crti.o
LOAD /home/ulises/devkitPro/devkitARM/bin/../lib/gcc/arm-none-eabi/4.9.2/thumb/crtbegin.o
LOAD main.o
LOAD /home/ulises/Escritorio/dbz/nflib/lib/libnflib.a
LOAD /home/ulises/devkitPro/libnds/lib/libfilesystem.a
LOAD /home/ulises/devkitPro/libnds/lib/libfat.a
LOAD /home/ulises/devkitPro/libnds/lib/libnds9.a
START GROUP
LOAD /home/ulises/devkitPro/devkitARM/bin/../lib/gcc/arm-none-eabi/4.9.2/thumb/libgcc.a
LOAD /home/ulises/devkitPro/devkitARM/bin/../lib/gcc/arm-none-eabi/4.9.2/../../../../arm-none-eabi/lib/thumb/libg.a
LOAD /home/ulises/devkitPro/devkitARM/bin/../lib/gcc/arm-none-eabi/4.9.2/../../../../arm-none-eabi/lib/thumb/libc.a
LOAD /home/ulises/devkitPro/devkitARM/bin/../lib/gcc/arm-none-eabi/4.9.2/../../../../arm-none-eabi/lib/thumb/libsysbase.a
END GROUP
LOAD /home/ulises/devkitPro/devkitARM/bin/../lib/gcc/arm-none-eabi/4.9.2/thumb/crtend.o
LOAD /home/ulises/devkitPro/devkitARM/bin/../lib/gcc/arm-none-eabi/4.9.2/thumb/crtn.o
OUTPUT(/home/ulises/Escritorio/dbz/dbz.elf elf32-littlearm)

.debug_ranges   0x0000000000000000     0x1650
 .debug_ranges  0x0000000000000000       0x18 main.o
 .debug_ranges  0x0000000000000018       0x20 /home/ulises/Escritorio/dbz/nflib/lib/libnflib.a(nf_2d.o)
 .debug_ranges  0x0000000000000038       0x30 /home/ulises/Escritorio/dbz/nflib/lib/libnflib.a(nf_basic.o)
 .debug_ranges  0x0000000000000068       0x90 /home/ulises/Escritorio/dbz/nflib/lib/libnflib.a(nf_sprite256.o)
 .debug_ranges  0x00000000000000f8       0xa8 /home/ulises/Escritorio/dbz/nflib/lib/libnflib.a(nf_tiledbg.o)
 .debug_ranges  0x00000000000001a0      0x260 /home/ulises/devkitPro/libnds/lib/libfilesystem.a(nitrofs.o)
 .debug_ranges  0x0000000000000400       0x78 /home/ulises/devkitPro/libnds/lib/libfat.a(libfat.o)
 .debug_ranges  0x0000000000000478      0x210 /home/ulises/devkitPro/libnds/lib/libfat.a(partition.o)
 .debug_ranges  0x0000000000000688       0xc8 /home/ulises/devkitPro/libnds/lib/libfat.a(fatdir.o)
 .debug_ranges  0x0000000000000750       0x30 /home/ulises/devkitPro/libnds/lib/libfat.a(cache.o)
 .debug_ranges  0x0000000000000780      0x330 /home/ulises/devkitPro/libnds/lib/libfat.a(fatfile.o)
 .debug_ranges  0x0000000000000ab0       0x88 /home/ulises/devkitPro/libnds/lib/libfat.a(file_allocation_table.o)
 .debug_ranges  0x0000000000000b38      0x2e0 /home/ulises/devkitPro/libnds/lib/libfat.a(directory.o)
 .debug_ranges  0x0000000000000e18       0x58 /home/ulises/devkitPro/libnds/lib/libnds9.a(sprite.o)
 .debug_ranges  0x0000000000000e70       0x40 /home/ulises/devkitPro/libnds/lib/libnds9.a(trig.o)
 .debug_ranges  0x0000000000000eb0      0x1f8 /home/ulises/devkitPro/libnds/lib/libnds9.a(console.o)
 .debug_ranges  0x00000000000010a8       0x68 /home/ulises/devkitPro/libnds/lib/libnds9.a(sprite_alloc.o)
 .debug_ranges  0x0000000000001110       0x18 /home/ulises/devkitPro/libnds/lib/libnds9.a(touch.o)
 .debug_ranges  0x0000000000001128       0x48 /home/ulises/devkitPro/libnds/lib/libnds9.a(video.o)
 .debug_ranges  0x0000000000001170       0x98 /home/ulises/devkitPro/libnds/lib/libnds9.a(background.o)
 .debug_ranges  0x0000000000001208       0x18 /home/ulises/devkitPro/libnds/lib/libnds9.a(dldi.o)
 .debug_ranges  0x0000000000001220      0x340 /home/ulises/devkitPro/libnds/lib/libnds9.a(fifosystem.o)
 .debug_ranges  0x0000000000001560       0x30 /home/ulises/devkitPro/libnds/lib/libnds9.a(card.o)
 .debug_ranges  0x0000000000001590       0xc0 /home/ulises/devkitPro/libnds/lib/libnds9.a(interrupts.o)
